(dp1
S'paris'
p2
(lp3
(lp4
S'Operation'
p5
aS'Syria'
p6
aS'Islamic State of Iraq and the Levant'
p7
aS'Paris'
p8
aa(lp9
g5
ag6
ag7
aS'Saint-Denis'
p10
aa(lp11
g5
ag6
ag7
aS'Stade'
p12
aa(lp13
g5
ag6
ag7
aS'Rues'
p14
aa(lp15
g5
ag6
ag7
aS'Bichat'
p16
aa(lp17
g5
ag6
ag7
aS'Charonne'
p18
aa(lp19
g5
ag6
ag7
aS'Voltaire'
p20
aa(lp21
g5
ag6
ag7
aS'Alibert'
p22
aa(lp23
g5
ag6
ag7
aS'Bataclan'
p24
aa(lp25
g5
ag6
ag7
aS'theatre'
p26
aa(lp27
g5
ag6
aS'ISIL'
p28
ag8
aa(lp29
g5
ag6
ag28
ag10
aa(lp30
g5
ag6
ag28
ag12
aa(lp31
g5
ag6
ag28
ag14
aa(lp32
g5
ag6
ag28
ag16
aa(lp33
g5
ag6
ag28
ag18
aa(lp34
g5
ag6
ag28
ag20
aa(lp35
g5
ag6
ag28
ag22
aa(lp36
g5
ag6
ag28
ag24
aa(lp37
g5
ag6
ag28
ag26
aa(lp38
g5
ag6
aS'Abdelhamid'
p39
ag8
aa(lp40
g5
ag6
ag39
ag10
aa(lp41
g5
ag6
ag39
ag12
aa(lp42
g5
ag6
ag39
ag14
aa(lp43
g5
ag6
ag39
ag16
aa(lp44
g5
ag6
ag39
ag18
aa(lp45
g5
ag6
ag39
ag20
aa(lp46
g5
ag6
ag39
ag22
aa(lp47
g5
ag6
ag39
ag24
aa(lp48
g5
ag6
ag39
ag26
aa(lp49
g5
ag6
aS'Abaaoud'
p50
ag8
aa(lp51
g5
ag6
ag50
ag10
aa(lp52
g5
ag6
ag50
ag12
aa(lp53
g5
ag6
ag50
ag14
aa(lp54
g5
ag6
ag50
ag16
aa(lp55
g5
ag6
ag50
ag18
aa(lp56
g5
ag6
ag50
ag20
aa(lp57
g5
ag6
ag50
ag22
aa(lp58
g5
ag6
ag50
ag24
aa(lp59
g5
ag6
ag50
ag26
aa(lp60
g5
aS'Iraq'
p61
ag7
ag8
aa(lp62
g5
ag61
ag7
ag10
aa(lp63
g5
ag61
ag7
ag12
aa(lp64
g5
ag61
ag7
ag14
aa(lp65
g5
ag61
ag7
ag16
aa(lp66
g5
ag61
ag7
ag18
aa(lp67
g5
ag61
ag7
ag20
aa(lp68
g5
ag61
ag7
ag22
aa(lp69
g5
ag61
ag7
ag24
aa(lp70
g5
ag61
ag7
ag26
aa(lp71
g5
ag61
ag28
ag8
aa(lp72
g5
ag61
ag28
ag10
aa(lp73
g5
ag61
ag28
ag12
aa(lp74
g5
ag61
ag28
ag14
aa(lp75
g5
ag61
ag28
ag16
aa(lp76
g5
ag61
ag28
ag18
aa(lp77
g5
ag61
ag28
ag20
aa(lp78
g5
ag61
ag28
ag22
aa(lp79
g5
ag61
ag28
ag24
aa(lp80
g5
ag61
ag28
ag26
aa(lp81
g5
ag61
ag39
ag8
aa(lp82
g5
ag61
ag39
ag10
aa(lp83
g5
ag61
ag39
ag12
aa(lp84
g5
ag61
ag39
ag14
aa(lp85
g5
ag61
ag39
ag16
aa(lp86
g5
ag61
ag39
ag18
aa(lp87
g5
ag61
ag39
ag20
aa(lp88
g5
ag61
ag39
ag22
aa(lp89
g5
ag61
ag39
ag24
aa(lp90
g5
ag61
ag39
ag26
aa(lp91
g5
ag61
ag50
ag8
aa(lp92
g5
ag61
ag50
ag10
aa(lp93
g5
ag61
ag50
ag12
aa(lp94
g5
ag61
ag50
ag14
aa(lp95
g5
ag61
ag50
ag16
aa(lp96
g5
ag61
ag50
ag18
aa(lp97
g5
ag61
ag50
ag20
aa(lp98
g5
ag61
ag50
ag22
aa(lp99
g5
ag61
ag50
ag24
aa(lp100
g5
ag61
ag50
ag26
aa(lp101
S'Chammal'
p102
ag6
ag7
ag8
aa(lp103
g102
ag6
ag7
ag10
aa(lp104
g102
ag6
ag7
ag12
aa(lp105
g102
ag6
ag7
ag14
aa(lp106
g102
ag6
ag7
ag16
aa(lp107
g102
ag6
ag7
ag18
aa(lp108
g102
ag6
ag7
ag20
aa(lp109
g102
ag6
ag7
ag22
aa(lp110
g102
ag6
ag7
ag24
aa(lp111
g102
ag6
ag7
ag26
aa(lp112
g102
ag6
ag28
ag8
aa(lp113
g102
ag6
ag28
ag10
aa(lp114
g102
ag6
ag28
ag12
aa(lp115
g102
ag6
ag28
ag14
aa(lp116
g102
ag6
ag28
ag16
aa(lp117
g102
ag6
ag28
ag18
aa(lp118
g102
ag6
ag28
ag20
aa(lp119
g102
ag6
ag28
ag22
aa(lp120
g102
ag6
ag28
ag24
aa(lp121
g102
ag6
ag28
ag26
aa(lp122
g102
ag6
ag39
ag8
aa(lp123
g102
ag6
ag39
ag10
aa(lp124
g102
ag6
ag39
ag12
aa(lp125
g102
ag6
ag39
ag14
aa(lp126
g102
ag6
ag39
ag16
aa(lp127
g102
ag6
ag39
ag18
aa(lp128
g102
ag6
ag39
ag20
aa(lp129
g102
ag6
ag39
ag22
aa(lp130
g102
ag6
ag39
ag24
aa(lp131
g102
ag6
ag39
ag26
aa(lp132
g102
ag6
ag50
ag8
aa(lp133
g102
ag6
ag50
ag10
aa(lp134
g102
ag6
ag50
ag12
aa(lp135
g102
ag6
ag50
ag14
aa(lp136
g102
ag6
ag50
ag16
aa(lp137
g102
ag6
ag50
ag18
aa(lp138
g102
ag6
ag50
ag20
aa(lp139
g102
ag6
ag50
ag22
aa(lp140
g102
ag6
ag50
ag24
aa(lp141
g102
ag6
ag50
ag26
aa(lp142
g102
ag61
ag7
ag8
aa(lp143
g102
ag61
ag7
ag10
aa(lp144
g102
ag61
ag7
ag12
aa(lp145
g102
ag61
ag7
ag14
aa(lp146
g102
ag61
ag7
ag16
aa(lp147
g102
ag61
ag7
ag18
aa(lp148
g102
ag61
ag7
ag20
aa(lp149
g102
ag61
ag7
ag22
aa(lp150
g102
ag61
ag7
ag24
aa(lp151
g102
ag61
ag7
ag26
aa(lp152
g102
ag61
ag28
ag8
aa(lp153
g102
ag61
ag28
ag10
aa(lp154
g102
ag61
ag28
ag12
aa(lp155
g102
ag61
ag28
ag14
aa(lp156
g102
ag61
ag28
ag16
aa(lp157
g102
ag61
ag28
ag18
aa(lp158
g102
ag61
ag28
ag20
aa(lp159
g102
ag61
ag28
ag22
aa(lp160
g102
ag61
ag28
ag24
aa(lp161
g102
ag61
ag28
ag26
aa(lp162
g102
ag61
ag39
ag8
aa(lp163
g102
ag61
ag39
ag10
aa(lp164
g102
ag61
ag39
ag12
aa(lp165
g102
ag61
ag39
ag14
aa(lp166
g102
ag61
ag39
ag16
aa(lp167
g102
ag61
ag39
ag18
aa(lp168
g102
ag61
ag39
ag20
aa(lp169
g102
ag61
ag39
ag22
aa(lp170
g102
ag61
ag39
ag24
aa(lp171
g102
ag61
ag39
ag26
aa(lp172
g102
ag61
ag50
ag8
aa(lp173
g102
ag61
ag50
ag10
aa(lp174
g102
ag61
ag50
ag12
aa(lp175
g102
ag61
ag50
ag14
aa(lp176
g102
ag61
ag50
ag16
aa(lp177
g102
ag61
ag50
ag18
aa(lp178
g102
ag61
ag50
ag20
aa(lp179
g102
ag61
ag50
ag22
aa(lp180
g102
ag61
ag50
ag24
aa(lp181
g102
ag61
ag50
ag26
aasS'charlie'
p182
(lp183
(lp184
S'satirical'
p185
aS'Al-Qaeda'
p186
aS'Charlie'
p187
aS'Vigipirate'
p188
aa(lp189
g185
ag186
ag187
aS'jesuischarlie'
p190
aa(lp191
g185
ag186
ag187
aS'#JeSuisCharlie'
p192
aa(lp193
g185
ag186
ag187
aS'R\xc3\xa9publique'
p194
aa(lp195
g185
ag186
aS'Hebdo'
p196
ag188
aa(lp197
g185
ag186
ag196
ag190
aa(lp198
g185
ag186
ag196
ag192
aa(lp199
g185
ag186
ag196
ag194
aa(lp200
g185
ag186
aS'Cabu'
p201
ag188
aa(lp202
g185
ag186
ag201
ag190
aa(lp203
g185
ag186
ag201
ag192
aa(lp204
g185
ag186
ag201
ag194
aa(lp205
g185
ag186
aS'Elsa'
p206
ag188
aa(lp207
g185
ag186
ag206
ag190
aa(lp208
g185
ag186
ag206
ag192
aa(lp209
g185
ag186
ag206
ag194
aa(lp210
g185
ag186
aS'Cayat'
p211
ag188
aa(lp212
g185
ag186
ag211
ag190
aa(lp213
g185
ag186
ag211
ag192
aa(lp214
g185
ag186
ag211
ag194
aa(lp215
g185
ag186
aS'Charb'
p216
ag188
aa(lp217
g185
ag186
ag216
ag190
aa(lp218
g185
ag186
ag216
ag192
aa(lp219
g185
ag186
ag216
ag194
aa(lp220
g185
ag186
aS'Wolinski'
p221
ag188
aa(lp222
g185
ag186
ag221
ag190
aa(lp223
g185
ag186
ag221
ag192
aa(lp224
g185
ag186
ag221
ag194
aa(lp225
g185
ag186
aS'Tignous'
p226
ag188
aa(lp227
g185
ag186
ag226
ag190
aa(lp228
g185
ag186
ag226
ag192
aa(lp229
g185
ag186
ag226
ag194
aa(lp230
g185
aS'AQAP'
p231
ag187
ag188
aa(lp232
g185
ag231
ag187
ag190
aa(lp233
g185
ag231
ag187
ag192
aa(lp234
g185
ag231
ag187
ag194
aa(lp235
g185
ag231
ag196
ag188
aa(lp236
g185
ag231
ag196
ag190
aa(lp237
g185
ag231
ag196
ag192
aa(lp238
g185
ag231
ag196
ag194
aa(lp239
g185
ag231
ag201
ag188
aa(lp240
g185
ag231
ag201
ag190
aa(lp241
g185
ag231
ag201
ag192
aa(lp242
g185
ag231
ag201
ag194
aa(lp243
g185
ag231
ag206
ag188
aa(lp244
g185
ag231
ag206
ag190
aa(lp245
g185
ag231
ag206
ag192
aa(lp246
g185
ag231
ag206
ag194
aa(lp247
g185
ag231
ag211
ag188
aa(lp248
g185
ag231
ag211
ag190
aa(lp249
g185
ag231
ag211
ag192
aa(lp250
g185
ag231
ag211
ag194
aa(lp251
g185
ag231
ag216
ag188
aa(lp252
g185
ag231
ag216
ag190
aa(lp253
g185
ag231
ag216
ag192
aa(lp254
g185
ag231
ag216
ag194
aa(lp255
g185
ag231
ag221
ag188
aa(lp256
g185
ag231
ag221
ag190
aa(lp257
g185
ag231
ag221
ag192
aa(lp258
g185
ag231
ag221
ag194
aa(lp259
g185
ag231
ag226
ag188
aa(lp260
g185
ag231
ag226
ag190
aa(lp261
g185
ag231
ag226
ag192
aa(lp262
g185
ag231
ag226
ag194
aa(lp263
g185
aS'Sa\xc3\xafd'
p264
ag187
ag188
aa(lp265
g185
ag264
ag187
ag190
aa(lp266
g185
ag264
ag187
ag192
aa(lp267
g185
ag264
ag187
ag194
aa(lp268
g185
ag264
ag196
ag188
aa(lp269
g185
ag264
ag196
ag190
aa(lp270
g185
ag264
ag196
ag192
aa(lp271
g185
ag264
ag196
ag194
aa(lp272
g185
ag264
ag201
ag188
aa(lp273
g185
ag264
ag201
ag190
aa(lp274
g185
ag264
ag201
ag192
aa(lp275
g185
ag264
ag201
ag194
aa(lp276
g185
ag264
ag206
ag188
aa(lp277
g185
ag264
ag206
ag190
aa(lp278
g185
ag264
ag206
ag192
aa(lp279
g185
ag264
ag206
ag194
aa(lp280
g185
ag264
ag211
ag188
aa(lp281
g185
ag264
ag211
ag190
aa(lp282
g185
ag264
ag211
ag192
aa(lp283
g185
ag264
ag211
ag194
aa(lp284
g185
ag264
ag216
ag188
aa(lp285
g185
ag264
ag216
ag190
aa(lp286
g185
ag264
ag216
ag192
aa(lp287
g185
ag264
ag216
ag194
aa(lp288
g185
ag264
ag221
ag188
aa(lp289
g185
ag264
ag221
ag190
aa(lp290
g185
ag264
ag221
ag192
aa(lp291
g185
ag264
ag221
ag194
aa(lp292
g185
ag264
ag226
ag188
aa(lp293
g185
ag264
ag226
ag190
aa(lp294
g185
ag264
ag226
ag192
aa(lp295
g185
ag264
ag226
ag194
aa(lp296
g185
aS'Said'
p297
ag187
ag188
aa(lp298
g185
ag297
ag187
ag190
aa(lp299
g185
ag297
ag187
ag192
aa(lp300
g185
ag297
ag187
ag194
aa(lp301
g185
ag297
ag196
ag188
aa(lp302
g185
ag297
ag196
ag190
aa(lp303
g185
ag297
ag196
ag192
aa(lp304
g185
ag297
ag196
ag194
aa(lp305
g185
ag297
ag201
ag188
aa(lp306
g185
ag297
ag201
ag190
aa(lp307
g185
ag297
ag201
ag192
aa(lp308
g185
ag297
ag201
ag194
aa(lp309
g185
ag297
ag206
ag188
aa(lp310
g185
ag297
ag206
ag190
aa(lp311
g185
ag297
ag206
ag192
aa(lp312
g185
ag297
ag206
ag194
aa(lp313
g185
ag297
ag211
ag188
aa(lp314
g185
ag297
ag211
ag190
aa(lp315
g185
ag297
ag211
ag192
aa(lp316
g185
ag297
ag211
ag194
aa(lp317
g185
ag297
ag216
ag188
aa(lp318
g185
ag297
ag216
ag190
aa(lp319
g185
ag297
ag216
ag192
aa(lp320
g185
ag297
ag216
ag194
aa(lp321
g185
ag297
ag221
ag188
aa(lp322
g185
ag297
ag221
ag190
aa(lp323
g185
ag297
ag221
ag192
aa(lp324
g185
ag297
ag221
ag194
aa(lp325
g185
ag297
ag226
ag188
aa(lp326
g185
ag297
ag226
ag190
aa(lp327
g185
ag297
ag226
ag192
aa(lp328
g185
ag297
ag226
ag194
aa(lp329
g185
aS'Cherif'
p330
ag187
ag188
aa(lp331
g185
ag330
ag187
ag190
aa(lp332
g185
ag330
ag187
ag192
aa(lp333
g185
ag330
ag187
ag194
aa(lp334
g185
ag330
ag196
ag188
aa(lp335
g185
ag330
ag196
ag190
aa(lp336
g185
ag330
ag196
ag192
aa(lp337
g185
ag330
ag196
ag194
aa(lp338
g185
ag330
ag201
ag188
aa(lp339
g185
ag330
ag201
ag190
aa(lp340
g185
ag330
ag201
ag192
aa(lp341
g185
ag330
ag201
ag194
aa(lp342
g185
ag330
ag206
ag188
aa(lp343
g185
ag330
ag206
ag190
aa(lp344
g185
ag330
ag206
ag192
aa(lp345
g185
ag330
ag206
ag194
aa(lp346
g185
ag330
ag211
ag188
aa(lp347
g185
ag330
ag211
ag190
aa(lp348
g185
ag330
ag211
ag192
aa(lp349
g185
ag330
ag211
ag194
aa(lp350
g185
ag330
ag216
ag188
aa(lp351
g185
ag330
ag216
ag190
aa(lp352
g185
ag330
ag216
ag192
aa(lp353
g185
ag330
ag216
ag194
aa(lp354
g185
ag330
ag221
ag188
aa(lp355
g185
ag330
ag221
ag190
aa(lp356
g185
ag330
ag221
ag192
aa(lp357
g185
ag330
ag221
ag194
aa(lp358
g185
ag330
ag226
ag188
aa(lp359
g185
ag330
ag226
ag190
aa(lp360
g185
ag330
ag226
ag192
aa(lp361
g185
ag330
ag226
ag194
aa(lp362
g185
aS'Ch\xc3\xa9rif'
p363
ag187
ag188
aa(lp364
g185
ag363
ag187
ag190
aa(lp365
g185
ag363
ag187
ag192
aa(lp366
g185
ag363
ag187
ag194
aa(lp367
g185
ag363
ag196
ag188
aa(lp368
g185
ag363
ag196
ag190
aa(lp369
g185
ag363
ag196
ag192
aa(lp370
g185
ag363
ag196
ag194
aa(lp371
g185
ag363
ag201
ag188
aa(lp372
g185
ag363
ag201
ag190
aa(lp373
g185
ag363
ag201
ag192
aa(lp374
g185
ag363
ag201
ag194
aa(lp375
g185
ag363
ag206
ag188
aa(lp376
g185
ag363
ag206
ag190
aa(lp377
g185
ag363
ag206
ag192
aa(lp378
g185
ag363
ag206
ag194
aa(lp379
g185
ag363
ag211
ag188
aa(lp380
g185
ag363
ag211
ag190
aa(lp381
g185
ag363
ag211
ag192
aa(lp382
g185
ag363
ag211
ag194
aa(lp383
g185
ag363
ag216
ag188
aa(lp384
g185
ag363
ag216
ag190
aa(lp385
g185
ag363
ag216
ag192
aa(lp386
g185
ag363
ag216
ag194
aa(lp387
g185
ag363
ag221
ag188
aa(lp388
g185
ag363
ag221
ag190
aa(lp389
g185
ag363
ag221
ag192
aa(lp390
g185
ag363
ag221
ag194
aa(lp391
g185
ag363
ag226
ag188
aa(lp392
g185
ag363
ag226
ag190
aa(lp393
g185
ag363
ag226
ag192
aa(lp394
g185
ag363
ag226
ag194
aa(lp395
g185
aS'Kouachi'
p396
ag187
ag188
aa(lp397
g185
ag396
ag187
ag190
aa(lp398
g185
ag396
ag187
ag192
aa(lp399
g185
ag396
ag187
ag194
aa(lp400
g185
ag396
ag196
ag188
aa(lp401
g185
ag396
ag196
ag190
aa(lp402
g185
ag396
ag196
ag192
aa(lp403
g185
ag396
ag196
ag194
aa(lp404
g185
ag396
ag201
ag188
aa(lp405
g185
ag396
ag201
ag190
aa(lp406
g185
ag396
ag201
ag192
aa(lp407
g185
ag396
ag201
ag194
aa(lp408
g185
ag396
ag206
ag188
aa(lp409
g185
ag396
ag206
ag190
aa(lp410
g185
ag396
ag206
ag192
aa(lp411
g185
ag396
ag206
ag194
aa(lp412
g185
ag396
ag211
ag188
aa(lp413
g185
ag396
ag211
ag190
aa(lp414
g185
ag396
ag211
ag192
aa(lp415
g185
ag396
ag211
ag194
aa(lp416
g185
ag396
ag216
ag188
aa(lp417
g185
ag396
ag216
ag190
aa(lp418
g185
ag396
ag216
ag192
aa(lp419
g185
ag396
ag216
ag194
aa(lp420
g185
ag396
ag221
ag188
aa(lp421
g185
ag396
ag221
ag190
aa(lp422
g185
ag396
ag221
ag192
aa(lp423
g185
ag396
ag221
ag194
aa(lp424
g185
ag396
ag226
ag188
aa(lp425
g185
ag396
ag226
ag190
aa(lp426
g185
ag396
ag226
ag192
aa(lp427
g185
ag396
ag226
ag194
aa(lp428
S'Muhammad'
p429
ag186
ag187
ag188
aa(lp430
g429
ag186
ag187
ag190
aa(lp431
g429
ag186
ag187
ag192
aa(lp432
g429
ag186
ag187
ag194
aa(lp433
g429
ag186
ag196
ag188
aa(lp434
g429
ag186
ag196
ag190
aa(lp435
g429
ag186
ag196
ag192
aa(lp436
g429
ag186
ag196
ag194
aa(lp437
g429
ag186
ag201
ag188
aa(lp438
g429
ag186
ag201
ag190
aa(lp439
g429
ag186
ag201
ag192
aa(lp440
g429
ag186
ag201
ag194
aa(lp441
g429
ag186
ag206
ag188
aa(lp442
g429
ag186
ag206
ag190
aa(lp443
g429
ag186
ag206
ag192
aa(lp444
g429
ag186
ag206
ag194
aa(lp445
g429
ag186
ag211
ag188
aa(lp446
g429
ag186
ag211
ag190
aa(lp447
g429
ag186
ag211
ag192
aa(lp448
g429
ag186
ag211
ag194
aa(lp449
g429
ag186
ag216
ag188
aa(lp450
g429
ag186
ag216
ag190
aa(lp451
g429
ag186
ag216
ag192
aa(lp452
g429
ag186
ag216
ag194
aa(lp453
g429
ag186
ag221
ag188
aa(lp454
g429
ag186
ag221
ag190
aa(lp455
g429
ag186
ag221
ag192
aa(lp456
g429
ag186
ag221
ag194
aa(lp457
g429
ag186
ag226
ag188
aa(lp458
g429
ag186
ag226
ag190
aa(lp459
g429
ag186
ag226
ag192
aa(lp460
g429
ag186
ag226
ag194
aa(lp461
g429
ag231
ag187
ag188
aa(lp462
g429
ag231
ag187
ag190
aa(lp463
g429
ag231
ag187
ag192
aa(lp464
g429
ag231
ag187
ag194
aa(lp465
g429
ag231
ag196
ag188
aa(lp466
g429
ag231
ag196
ag190
aa(lp467
g429
ag231
ag196
ag192
aa(lp468
g429
ag231
ag196
ag194
aa(lp469
g429
ag231
ag201
ag188
aa(lp470
g429
ag231
ag201
ag190
aa(lp471
g429
ag231
ag201
ag192
aa(lp472
g429
ag231
ag201
ag194
aa(lp473
g429
ag231
ag206
ag188
aa(lp474
g429
ag231
ag206
ag190
aa(lp475
g429
ag231
ag206
ag192
aa(lp476
g429
ag231
ag206
ag194
aa(lp477
g429
ag231
ag211
ag188
aa(lp478
g429
ag231
ag211
ag190
aa(lp479
g429
ag231
ag211
ag192
aa(lp480
g429
ag231
ag211
ag194
aa(lp481
g429
ag231
ag216
ag188
aa(lp482
g429
ag231
ag216
ag190
aa(lp483
g429
ag231
ag216
ag192
aa(lp484
g429
ag231
ag216
ag194
aa(lp485
g429
ag231
ag221
ag188
aa(lp486
g429
ag231
ag221
ag190
aa(lp487
g429
ag231
ag221
ag192
aa(lp488
g429
ag231
ag221
ag194
aa(lp489
g429
ag231
ag226
ag188
aa(lp490
g429
ag231
ag226
ag190
aa(lp491
g429
ag231
ag226
ag192
aa(lp492
g429
ag231
ag226
ag194
aa(lp493
g429
ag264
ag187
ag188
aa(lp494
g429
ag264
ag187
ag190
aa(lp495
g429
ag264
ag187
ag192
aa(lp496
g429
ag264
ag187
ag194
aa(lp497
g429
ag264
ag196
ag188
aa(lp498
g429
ag264
ag196
ag190
aa(lp499
g429
ag264
ag196
ag192
aa(lp500
g429
ag264
ag196
ag194
aa(lp501
g429
ag264
ag201
ag188
aa(lp502
g429
ag264
ag201
ag190
aa(lp503
g429
ag264
ag201
ag192
aa(lp504
g429
ag264
ag201
ag194
aa(lp505
g429
ag264
ag206
ag188
aa(lp506
g429
ag264
ag206
ag190
aa(lp507
g429
ag264
ag206
ag192
aa(lp508
g429
ag264
ag206
ag194
aa(lp509
g429
ag264
ag211
ag188
aa(lp510
g429
ag264
ag211
ag190
aa(lp511
g429
ag264
ag211
ag192
aa(lp512
g429
ag264
ag211
ag194
aa(lp513
g429
ag264
ag216
ag188
aa(lp514
g429
ag264
ag216
ag190
aa(lp515
g429
ag264
ag216
ag192
aa(lp516
g429
ag264
ag216
ag194
aa(lp517
g429
ag264
ag221
ag188
aa(lp518
g429
ag264
ag221
ag190
aa(lp519
g429
ag264
ag221
ag192
aa(lp520
g429
ag264
ag221
ag194
aa(lp521
g429
ag264
ag226
ag188
aa(lp522
g429
ag264
ag226
ag190
aa(lp523
g429
ag264
ag226
ag192
aa(lp524
g429
ag264
ag226
ag194
aa(lp525
g429
ag297
ag187
ag188
aa(lp526
g429
ag297
ag187
ag190
aa(lp527
g429
ag297
ag187
ag192
aa(lp528
g429
ag297
ag187
ag194
aa(lp529
g429
ag297
ag196
ag188
aa(lp530
g429
ag297
ag196
ag190
aa(lp531
g429
ag297
ag196
ag192
aa(lp532
g429
ag297
ag196
ag194
aa(lp533
g429
ag297
ag201
ag188
aa(lp534
g429
ag297
ag201
ag190
aa(lp535
g429
ag297
ag201
ag192
aa(lp536
g429
ag297
ag201
ag194
aa(lp537
g429
ag297
ag206
ag188
aa(lp538
g429
ag297
ag206
ag190
aa(lp539
g429
ag297
ag206
ag192
aa(lp540
g429
ag297
ag206
ag194
aa(lp541
g429
ag297
ag211
ag188
aa(lp542
g429
ag297
ag211
ag190
aa(lp543
g429
ag297
ag211
ag192
aa(lp544
g429
ag297
ag211
ag194
aa(lp545
g429
ag297
ag216
ag188
aa(lp546
g429
ag297
ag216
ag190
aa(lp547
g429
ag297
ag216
ag192
aa(lp548
g429
ag297
ag216
ag194
aa(lp549
g429
ag297
ag221
ag188
aa(lp550
g429
ag297
ag221
ag190
aa(lp551
g429
ag297
ag221
ag192
aa(lp552
g429
ag297
ag221
ag194
aa(lp553
g429
ag297
ag226
ag188
aa(lp554
g429
ag297
ag226
ag190
aa(lp555
g429
ag297
ag226
ag192
aa(lp556
g429
ag297
ag226
ag194
aa(lp557
g429
ag330
ag187
ag188
aa(lp558
g429
ag330
ag187
ag190
aa(lp559
g429
ag330
ag187
ag192
aa(lp560
g429
ag330
ag187
ag194
aa(lp561
g429
ag330
ag196
ag188
aa(lp562
g429
ag330
ag196
ag190
aa(lp563
g429
ag330
ag196
ag192
aa(lp564
g429
ag330
ag196
ag194
aa(lp565
g429
ag330
ag201
ag188
aa(lp566
g429
ag330
ag201
ag190
aa(lp567
g429
ag330
ag201
ag192
aa(lp568
g429
ag330
ag201
ag194
aa(lp569
g429
ag330
ag206
ag188
aa(lp570
g429
ag330
ag206
ag190
aa(lp571
g429
ag330
ag206
ag192
aa(lp572
g429
ag330
ag206
ag194
aa(lp573
g429
ag330
ag211
ag188
aa(lp574
g429
ag330
ag211
ag190
aa(lp575
g429
ag330
ag211
ag192
aa(lp576
g429
ag330
ag211
ag194
aa(lp577
g429
ag330
ag216
ag188
aa(lp578
g429
ag330
ag216
ag190
aa(lp579
g429
ag330
ag216
ag192
aa(lp580
g429
ag330
ag216
ag194
aa(lp581
g429
ag330
ag221
ag188
aa(lp582
g429
ag330
ag221
ag190
aa(lp583
g429
ag330
ag221
ag192
aa(lp584
g429
ag330
ag221
ag194
aa(lp585
g429
ag330
ag226
ag188
aa(lp586
g429
ag330
ag226
ag190
aa(lp587
g429
ag330
ag226
ag192
aa(lp588
g429
ag330
ag226
ag194
aa(lp589
g429
ag363
ag187
ag188
aa(lp590
g429
ag363
ag187
ag190
aa(lp591
g429
ag363
ag187
ag192
aa(lp592
g429
ag363
ag187
ag194
aa(lp593
g429
ag363
ag196
ag188
aa(lp594
g429
ag363
ag196
ag190
aa(lp595
g429
ag363
ag196
ag192
aa(lp596
g429
ag363
ag196
ag194
aa(lp597
g429
ag363
ag201
ag188
aa(lp598
g429
ag363
ag201
ag190
aa(lp599
g429
ag363
ag201
ag192
aa(lp600
g429
ag363
ag201
ag194
aa(lp601
g429
ag363
ag206
ag188
aa(lp602
g429
ag363
ag206
ag190
aa(lp603
g429
ag363
ag206
ag192
aa(lp604
g429
ag363
ag206
ag194
aa(lp605
g429
ag363
ag211
ag188
aa(lp606
g429
ag363
ag211
ag190
aa(lp607
g429
ag363
ag211
ag192
aa(lp608
g429
ag363
ag211
ag194
aa(lp609
g429
ag363
ag216
ag188
aa(lp610
g429
ag363
ag216
ag190
aa(lp611
g429
ag363
ag216
ag192
aa(lp612
g429
ag363
ag216
ag194
aa(lp613
g429
ag363
ag221
ag188
aa(lp614
g429
ag363
ag221
ag190
aa(lp615
g429
ag363
ag221
ag192
aa(lp616
g429
ag363
ag221
ag194
aa(lp617
g429
ag363
ag226
ag188
aa(lp618
g429
ag363
ag226
ag190
aa(lp619
g429
ag363
ag226
ag192
aa(lp620
g429
ag363
ag226
ag194
aa(lp621
g429
ag396
ag187
ag188
aa(lp622
g429
ag396
ag187
ag190
aa(lp623
g429
ag396
ag187
ag192
aa(lp624
g429
ag396
ag187
ag194
aa(lp625
g429
ag396
ag196
ag188
aa(lp626
g429
ag396
ag196
ag190
aa(lp627
g429
ag396
ag196
ag192
aa(lp628
g429
ag396
ag196
ag194
aa(lp629
g429
ag396
ag201
ag188
aa(lp630
g429
ag396
ag201
ag190
aa(lp631
g429
ag396
ag201
ag192
aa(lp632
g429
ag396
ag201
ag194
aa(lp633
g429
ag396
ag206
ag188
aa(lp634
g429
ag396
ag206
ag190
aa(lp635
g429
ag396
ag206
ag192
aa(lp636
g429
ag396
ag206
ag194
aa(lp637
g429
ag396
ag211
ag188
aa(lp638
g429
ag396
ag211
ag190
aa(lp639
g429
ag396
ag211
ag192
aa(lp640
g429
ag396
ag211
ag194
aa(lp641
g429
ag396
ag216
ag188
aa(lp642
g429
ag396
ag216
ag190
aa(lp643
g429
ag396
ag216
ag192
aa(lp644
g429
ag396
ag216
ag194
aa(lp645
g429
ag396
ag221
ag188
aa(lp646
g429
ag396
ag221
ag190
aa(lp647
g429
ag396
ag221
ag192
aa(lp648
g429
ag396
ag221
ag194
aa(lp649
g429
ag396
ag226
ag188
aa(lp650
g429
ag396
ag226
ag190
aa(lp651
g429
ag396
ag226
ag192
aa(lp652
g429
ag396
ag226
ag194
aa(lp653
S'Al-Qaeda'
p654
aS'Sa\xc3\xafd'
p655
aS'Charlie'
p656
aa(lp657
g654
ag655
aS'Hebdo'
p658
aa(lp659
g654
aS'Ch\xc3\xa9rif'
p660
ag656
aa(lp661
g654
ag660
ag658
aa(lp662
g654
aS'Kouachi'
p663
ag656
aa(lp664
g654
ag663
ag658
aa(lp665
S'Anwar'
p666
ag655
ag656
aa(lp667
g666
ag655
ag658
aa(lp668
g666
ag660
ag656
aa(lp669
g666
ag660
ag658
aa(lp670
g666
ag663
ag656
aa(lp671
g666
ag663
ag658
aa(lp672
S'al-Awlaki'
p673
ag655
ag656
aa(lp674
g673
ag655
ag658
aa(lp675
g673
ag660
ag656
aa(lp676
g673
ag660
ag658
aa(lp677
g673
ag663
ag656
aa(lp678
g673
ag663
ag658
aa(lp679
S'AQAP'
p680
ag655
ag656
aa(lp681
g680
ag655
ag658
aa(lp682
g680
ag660
ag656
aa(lp683
g680
ag660
ag658
aa(lp684
g680
ag663
ag656
aa(lp685
g680
ag663
ag658
aasS'martin'
p686
(lp687
(lp688
S'Philip'
p689
aS'big six'
p690
aS'Washington'
p691
aS'civil'
p692
aa(lp693
g689
ag690
ag691
aS'rights'
p694
aa(lp695
g689
ag690
ag691
aS'1964'
p696
aa(lp697
g689
ag690
ag691
aS'1965'
p698
aa(lp699
g689
ag690
ag691
aS'act'
p700
aa(lp701
g689
ag690
aS'Monument'
p702
ag692
aa(lp703
g689
ag690
ag702
ag694
aa(lp704
g689
ag690
ag702
ag696
aa(lp705
g689
ag690
ag702
ag698
aa(lp706
g689
ag690
ag702
ag700
aa(lp707
g689
ag690
aS'Lincoln'
p708
ag692
aa(lp709
g689
ag690
ag708
ag694
aa(lp710
g689
ag690
ag708
ag696
aa(lp711
g689
ag690
ag708
ag698
aa(lp712
g689
ag690
ag708
ag700
aa(lp713
g689
ag690
aS'Memorial'
p714
ag692
aa(lp715
g689
ag690
ag714
ag694
aa(lp716
g689
ag690
ag714
ag696
aa(lp717
g689
ag690
ag714
ag698
aa(lp718
g689
ag690
ag714
ag700
aa(lp719
g689
aS'six'
p720
ag691
ag692
aa(lp721
g689
ag720
ag691
ag694
aa(lp722
g689
ag720
ag691
ag696
aa(lp723
g689
ag720
ag691
ag698
aa(lp724
g689
ag720
ag691
ag700
aa(lp725
g689
ag720
ag702
ag692
aa(lp726
g689
ag720
ag702
ag694
aa(lp727
g689
ag720
ag702
ag696
aa(lp728
g689
ag720
ag702
ag698
aa(lp729
g689
ag720
ag702
ag700
aa(lp730
g689
ag720
ag708
ag692
aa(lp731
g689
ag720
ag708
ag694
aa(lp732
g689
ag720
ag708
ag696
aa(lp733
g689
ag720
ag708
ag698
aa(lp734
g689
ag720
ag708
ag700
aa(lp735
g689
ag720
ag714
ag692
aa(lp736
g689
ag720
ag714
ag694
aa(lp737
g689
ag720
ag714
ag696
aa(lp738
g689
ag720
ag714
ag698
aa(lp739
g689
ag720
ag714
ag700
aa(lp740
g689
aS'Martin'
p741
ag691
ag692
aa(lp742
g689
ag741
ag691
ag694
aa(lp743
g689
ag741
ag691
ag696
aa(lp744
g689
ag741
ag691
ag698
aa(lp745
g689
ag741
ag691
ag700
aa(lp746
g689
ag741
ag702
ag692
aa(lp747
g689
ag741
ag702
ag694
aa(lp748
g689
ag741
ag702
ag696
aa(lp749
g689
ag741
ag702
ag698
aa(lp750
g689
ag741
ag702
ag700
aa(lp751
g689
ag741
ag708
ag692
aa(lp752
g689
ag741
ag708
ag694
aa(lp753
g689
ag741
ag708
ag696
aa(lp754
g689
ag741
ag708
ag698
aa(lp755
g689
ag741
ag708
ag700
aa(lp756
g689
ag741
ag714
ag692
aa(lp757
g689
ag741
ag714
ag694
aa(lp758
g689
ag741
ag714
ag696
aa(lp759
g689
ag741
ag714
ag698
aa(lp760
g689
ag741
ag714
ag700
aa(lp761
g689
aS'Luther'
p762
ag691
ag692
aa(lp763
g689
ag762
ag691
ag694
aa(lp764
g689
ag762
ag691
ag696
aa(lp765
g689
ag762
ag691
ag698
aa(lp766
g689
ag762
ag691
ag700
aa(lp767
g689
ag762
ag702
ag692
aa(lp768
g689
ag762
ag702
ag694
aa(lp769
g689
ag762
ag702
ag696
aa(lp770
g689
ag762
ag702
ag698
aa(lp771
g689
ag762
ag702
ag700
aa(lp772
g689
ag762
ag708
ag692
aa(lp773
g689
ag762
ag708
ag694
aa(lp774
g689
ag762
ag708
ag696
aa(lp775
g689
ag762
ag708
ag698
aa(lp776
g689
ag762
ag708
ag700
aa(lp777
g689
ag762
ag714
ag692
aa(lp778
g689
ag762
ag714
ag694
aa(lp779
g689
ag762
ag714
ag696
aa(lp780
g689
ag762
ag714
ag698
aa(lp781
g689
ag762
ag714
ag700
aa(lp782
g689
aS'King'
p783
ag691
ag692
aa(lp784
g689
ag783
ag691
ag694
aa(lp785
g689
ag783
ag691
ag696
aa(lp786
g689
ag783
ag691
ag698
aa(lp787
g689
ag783
ag691
ag700
aa(lp788
g689
ag783
ag702
ag692
aa(lp789
g689
ag783
ag702
ag694
aa(lp790
g689
ag783
ag702
ag696
aa(lp791
g689
ag783
ag702
ag698
aa(lp792
g689
ag783
ag702
ag700
aa(lp793
g689
ag783
ag708
ag692
aa(lp794
g689
ag783
ag708
ag694
aa(lp795
g689
ag783
ag708
ag696
aa(lp796
g689
ag783
ag708
ag698
aa(lp797
g689
ag783
ag708
ag700
aa(lp798
g689
ag783
ag714
ag692
aa(lp799
g689
ag783
ag714
ag694
aa(lp800
g689
ag783
ag714
ag696
aa(lp801
g689
ag783
ag714
ag698
aa(lp802
g689
ag783
ag714
ag700
aa(lp803
g689
aS'James'
p804
ag691
ag692
aa(lp805
g689
ag804
ag691
ag694
aa(lp806
g689
ag804
ag691
ag696
aa(lp807
g689
ag804
ag691
ag698
aa(lp808
g689
ag804
ag691
ag700
aa(lp809
g689
ag804
ag702
ag692
aa(lp810
g689
ag804
ag702
ag694
aa(lp811
g689
ag804
ag702
ag696
aa(lp812
g689
ag804
ag702
ag698
aa(lp813
g689
ag804
ag702
ag700
aa(lp814
g689
ag804
ag708
ag692
aa(lp815
g689
ag804
ag708
ag694
aa(lp816
g689
ag804
ag708
ag696
aa(lp817
g689
ag804
ag708
ag698
aa(lp818
g689
ag804
ag708
ag700
aa(lp819
g689
ag804
ag714
ag692
aa(lp820
g689
ag804
ag714
ag694
aa(lp821
g689
ag804
ag714
ag696
aa(lp822
g689
ag804
ag714
ag698
aa(lp823
g689
ag804
ag714
ag700
aa(lp824
g689
aS'Farmer'
p825
ag691
ag692
aa(lp826
g689
ag825
ag691
ag694
aa(lp827
g689
ag825
ag691
ag696
aa(lp828
g689
ag825
ag691
ag698
aa(lp829
g689
ag825
ag691
ag700
aa(lp830
g689
ag825
ag702
ag692
aa(lp831
g689
ag825
ag702
ag694
aa(lp832
g689
ag825
ag702
ag696
aa(lp833
g689
ag825
ag702
ag698
aa(lp834
g689
ag825
ag702
ag700
aa(lp835
g689
ag825
ag708
ag692
aa(lp836
g689
ag825
ag708
ag694
aa(lp837
g689
ag825
ag708
ag696
aa(lp838
g689
ag825
ag708
ag698
aa(lp839
g689
ag825
ag708
ag700
aa(lp840
g689
ag825
ag714
ag692
aa(lp841
g689
ag825
ag714
ag694
aa(lp842
g689
ag825
ag714
ag696
aa(lp843
g689
ag825
ag714
ag698
aa(lp844
g689
ag825
ag714
ag700
aa(lp845
g689
aS'John'
p846
ag691
ag692
aa(lp847
g689
ag846
ag691
ag694
aa(lp848
g689
ag846
ag691
ag696
aa(lp849
g689
ag846
ag691
ag698
aa(lp850
g689
ag846
ag691
ag700
aa(lp851
g689
ag846
ag702
ag692
aa(lp852
g689
ag846
ag702
ag694
aa(lp853
g689
ag846
ag702
ag696
aa(lp854
g689
ag846
ag702
ag698
aa(lp855
g689
ag846
ag702
ag700
aa(lp856
g689
ag846
ag708
ag692
aa(lp857
g689
ag846
ag708
ag694
aa(lp858
g689
ag846
ag708
ag696
aa(lp859
g689
ag846
ag708
ag698
aa(lp860
g689
ag846
ag708
ag700
aa(lp861
g689
ag846
ag714
ag692
aa(lp862
g689
ag846
ag714
ag694
aa(lp863
g689
ag846
ag714
ag696
aa(lp864
g689
ag846
ag714
ag698
aa(lp865
g689
ag846
ag714
ag700
aa(lp866
g689
aS'Lewis'
p867
ag691
ag692
aa(lp868
g689
ag867
ag691
ag694
aa(lp869
g689
ag867
ag691
ag696
aa(lp870
g689
ag867
ag691
ag698
aa(lp871
g689
ag867
ag691
ag700
aa(lp872
g689
ag867
ag702
ag692
aa(lp873
g689
ag867
ag702
ag694
aa(lp874
g689
ag867
ag702
ag696
aa(lp875
g689
ag867
ag702
ag698
aa(lp876
g689
ag867
ag702
ag700
aa(lp877
g689
ag867
ag708
ag692
aa(lp878
g689
ag867
ag708
ag694
aa(lp879
g689
ag867
ag708
ag696
aa(lp880
g689
ag867
ag708
ag698
aa(lp881
g689
ag867
ag708
ag700
aa(lp882
g689
ag867
ag714
ag692
aa(lp883
g689
ag867
ag714
ag694
aa(lp884
g689
ag867
ag714
ag696
aa(lp885
g689
ag867
ag714
ag698
aa(lp886
g689
ag867
ag714
ag700
aa(lp887
g689
aS'Roy'
p888
ag691
ag692
aa(lp889
g689
ag888
ag691
ag694
aa(lp890
g689
ag888
ag691
ag696
aa(lp891
g689
ag888
ag691
ag698
aa(lp892
g689
ag888
ag691
ag700
aa(lp893
g689
ag888
ag702
ag692
aa(lp894
g689
ag888
ag702
ag694
aa(lp895
g689
ag888
ag702
ag696
aa(lp896
g689
ag888
ag702
ag698
aa(lp897
g689
ag888
ag702
ag700
aa(lp898
g689
ag888
ag708
ag692
aa(lp899
g689
ag888
ag708
ag694
aa(lp900
g689
ag888
ag708
ag696
aa(lp901
g689
ag888
ag708
ag698
aa(lp902
g689
ag888
ag708
ag700
aa(lp903
g689
ag888
ag714
ag692
aa(lp904
g689
ag888
ag714
ag694
aa(lp905
g689
ag888
ag714
ag696
aa(lp906
g689
ag888
ag714
ag698
aa(lp907
g689
ag888
ag714
ag700
aa(lp908
g689
aS'Wilkins'
p909
ag691
ag692
aa(lp910
g689
ag909
ag691
ag694
aa(lp911
g689
ag909
ag691
ag696
aa(lp912
g689
ag909
ag691
ag698
aa(lp913
g689
ag909
ag691
ag700
aa(lp914
g689
ag909
ag702
ag692
aa(lp915
g689
ag909
ag702
ag694
aa(lp916
g689
ag909
ag702
ag696
aa(lp917
g689
ag909
ag702
ag698
aa(lp918
g689
ag909
ag702
ag700
aa(lp919
g689
ag909
ag708
ag692
aa(lp920
g689
ag909
ag708
ag694
aa(lp921
g689
ag909
ag708
ag696
aa(lp922
g689
ag909
ag708
ag698
aa(lp923
g689
ag909
ag708
ag700
aa(lp924
g689
ag909
ag714
ag692
aa(lp925
g689
ag909
ag714
ag694
aa(lp926
g689
ag909
ag714
ag696
aa(lp927
g689
ag909
ag714
ag698
aa(lp928
g689
ag909
ag714
ag700
aa(lp929
g689
aS'Whitney'
p930
ag691
ag692
aa(lp931
g689
ag930
ag691
ag694
aa(lp932
g689
ag930
ag691
ag696
aa(lp933
g689
ag930
ag691
ag698
aa(lp934
g689
ag930
ag691
ag700
aa(lp935
g689
ag930
ag702
ag692
aa(lp936
g689
ag930
ag702
ag694
aa(lp937
g689
ag930
ag702
ag696
aa(lp938
g689
ag930
ag702
ag698
aa(lp939
g689
ag930
ag702
ag700
aa(lp940
g689
ag930
ag708
ag692
aa(lp941
g689
ag930
ag708
ag694
aa(lp942
g689
ag930
ag708
ag696
aa(lp943
g689
ag930
ag708
ag698
aa(lp944
g689
ag930
ag708
ag700
aa(lp945
g689
ag930
ag714
ag692
aa(lp946
g689
ag930
ag714
ag694
aa(lp947
g689
ag930
ag714
ag696
aa(lp948
g689
ag930
ag714
ag698
aa(lp949
g689
ag930
ag714
ag700
aa(lp950
g689
aS'Young'
p951
ag691
ag692
aa(lp952
g689
ag951
ag691
ag694
aa(lp953
g689
ag951
ag691
ag696
aa(lp954
g689
ag951
ag691
ag698
aa(lp955
g689
ag951
ag691
ag700
aa(lp956
g689
ag951
ag702
ag692
aa(lp957
g689
ag951
ag702
ag694
aa(lp958
g689
ag951
ag702
ag696
aa(lp959
g689
ag951
ag702
ag698
aa(lp960
g689
ag951
ag702
ag700
aa(lp961
g689
ag951
ag708
ag692
aa(lp962
g689
ag951
ag708
ag694
aa(lp963
g689
ag951
ag708
ag696
aa(lp964
g689
ag951
ag708
ag698
aa(lp965
g689
ag951
ag708
ag700
aa(lp966
g689
ag951
ag714
ag692
aa(lp967
g689
ag951
ag714
ag694
aa(lp968
g689
ag951
ag714
ag696
aa(lp969
g689
ag951
ag714
ag698
aa(lp970
g689
ag951
ag714
ag700
aa(lp971
S'Randolph'
p972
ag690
ag691
ag692
aa(lp973
g972
ag690
ag691
ag694
aa(lp974
g972
ag690
ag691
ag696
aa(lp975
g972
ag690
ag691
ag698
aa(lp976
g972
ag690
ag691
ag700
aa(lp977
g972
ag690
ag702
ag692
aa(lp978
g972
ag690
ag702
ag694
aa(lp979
g972
ag690
ag702
ag696
aa(lp980
g972
ag690
ag702
ag698
aa(lp981
g972
ag690
ag702
ag700
aa(lp982
g972
ag690
ag708
ag692
aa(lp983
g972
ag690
ag708
ag694
aa(lp984
g972
ag690
ag708
ag696
aa(lp985
g972
ag690
ag708
ag698
aa(lp986
g972
ag690
ag708
ag700
aa(lp987
g972
ag690
ag714
ag692
aa(lp988
g972
ag690
ag714
ag694
aa(lp989
g972
ag690
ag714
ag696
aa(lp990
g972
ag690
ag714
ag698
aa(lp991
g972
ag690
ag714
ag700
aa(lp992
g972
ag720
ag691
ag692
aa(lp993
g972
ag720
ag691
ag694
aa(lp994
g972
ag720
ag691
ag696
aa(lp995
g972
ag720
ag691
ag698
aa(lp996
g972
ag720
ag691
ag700
aa(lp997
g972
ag720
ag702
ag692
aa(lp998
g972
ag720
ag702
ag694
aa(lp999
g972
ag720
ag702
ag696
aa(lp1000
g972
ag720
ag702
ag698
aa(lp1001
g972
ag720
ag702
ag700
aa(lp1002
g972
ag720
ag708
ag692
aa(lp1003
g972
ag720
ag708
ag694
aa(lp1004
g972
ag720
ag708
ag696
aa(lp1005
g972
ag720
ag708
ag698
aa(lp1006
g972
ag720
ag708
ag700
aa(lp1007
g972
ag720
ag714
ag692
aa(lp1008
g972
ag720
ag714
ag694
aa(lp1009
g972
ag720
ag714
ag696
aa(lp1010
g972
ag720
ag714
ag698
aa(lp1011
g972
ag720
ag714
ag700
aa(lp1012
g972
ag741
ag691
ag692
aa(lp1013
g972
ag741
ag691
ag694
aa(lp1014
g972
ag741
ag691
ag696
aa(lp1015
g972
ag741
ag691
ag698
aa(lp1016
g972
ag741
ag691
ag700
aa(lp1017
g972
ag741
ag702
ag692
aa(lp1018
g972
ag741
ag702
ag694
aa(lp1019
g972
ag741
ag702
ag696
aa(lp1020
g972
ag741
ag702
ag698
aa(lp1021
g972
ag741
ag702
ag700
aa(lp1022
g972
ag741
ag708
ag692
aa(lp1023
g972
ag741
ag708
ag694
aa(lp1024
g972
ag741
ag708
ag696
aa(lp1025
g972
ag741
ag708
ag698
aa(lp1026
g972
ag741
ag708
ag700
aa(lp1027
g972
ag741
ag714
ag692
aa(lp1028
g972
ag741
ag714
ag694
aa(lp1029
g972
ag741
ag714
ag696
aa(lp1030
g972
ag741
ag714
ag698
aa(lp1031
g972
ag741
ag714
ag700
aa(lp1032
g972
ag762
ag691
ag692
aa(lp1033
g972
ag762
ag691
ag694
aa(lp1034
g972
ag762
ag691
ag696
aa(lp1035
g972
ag762
ag691
ag698
aa(lp1036
g972
ag762
ag691
ag700
aa(lp1037
g972
ag762
ag702
ag692
aa(lp1038
g972
ag762
ag702
ag694
aa(lp1039
g972
ag762
ag702
ag696
aa(lp1040
g972
ag762
ag702
ag698
aa(lp1041
g972
ag762
ag702
ag700
aa(lp1042
g972
ag762
ag708
ag692
aa(lp1043
g972
ag762
ag708
ag694
aa(lp1044
g972
ag762
ag708
ag696
aa(lp1045
g972
ag762
ag708
ag698
aa(lp1046
g972
ag762
ag708
ag700
aa(lp1047
g972
ag762
ag714
ag692
aa(lp1048
g972
ag762
ag714
ag694
aa(lp1049
g972
ag762
ag714
ag696
aa(lp1050
g972
ag762
ag714
ag698
aa(lp1051
g972
ag762
ag714
ag700
aa(lp1052
g972
ag783
ag691
ag692
aa(lp1053
g972
ag783
ag691
ag694
aa(lp1054
g972
ag783
ag691
ag696
aa(lp1055
g972
ag783
ag691
ag698
aa(lp1056
g972
ag783
ag691
ag700
aa(lp1057
g972
ag783
ag702
ag692
aa(lp1058
g972
ag783
ag702
ag694
aa(lp1059
g972
ag783
ag702
ag696
aa(lp1060
g972
ag783
ag702
ag698
aa(lp1061
g972
ag783
ag702
ag700
aa(lp1062
g972
ag783
ag708
ag692
aa(lp1063
g972
ag783
ag708
ag694
aa(lp1064
g972
ag783
ag708
ag696
aa(lp1065
g972
ag783
ag708
ag698
aa(lp1066
g972
ag783
ag708
ag700
aa(lp1067
g972
ag783
ag714
ag692
aa(lp1068
g972
ag783
ag714
ag694
aa(lp1069
g972
ag783
ag714
ag696
aa(lp1070
g972
ag783
ag714
ag698
aa(lp1071
g972
ag783
ag714
ag700
aa(lp1072
g972
ag804
ag691
ag692
aa(lp1073
g972
ag804
ag691
ag694
aa(lp1074
g972
ag804
ag691
ag696
aa(lp1075
g972
ag804
ag691
ag698
aa(lp1076
g972
ag804
ag691
ag700
aa(lp1077
g972
ag804
ag702
ag692
aa(lp1078
g972
ag804
ag702
ag694
aa(lp1079
g972
ag804
ag702
ag696
aa(lp1080
g972
ag804
ag702
ag698
aa(lp1081
g972
ag804
ag702
ag700
aa(lp1082
g972
ag804
ag708
ag692
aa(lp1083
g972
ag804
ag708
ag694
aa(lp1084
g972
ag804
ag708
ag696
aa(lp1085
g972
ag804
ag708
ag698
aa(lp1086
g972
ag804
ag708
ag700
aa(lp1087
g972
ag804
ag714
ag692
aa(lp1088
g972
ag804
ag714
ag694
aa(lp1089
g972
ag804
ag714
ag696
aa(lp1090
g972
ag804
ag714
ag698
aa(lp1091
g972
ag804
ag714
ag700
aa(lp1092
g972
ag825
ag691
ag692
aa(lp1093
g972
ag825
ag691
ag694
aa(lp1094
g972
ag825
ag691
ag696
aa(lp1095
g972
ag825
ag691
ag698
aa(lp1096
g972
ag825
ag691
ag700
aa(lp1097
g972
ag825
ag702
ag692
aa(lp1098
g972
ag825
ag702
ag694
aa(lp1099
g972
ag825
ag702
ag696
aa(lp1100
g972
ag825
ag702
ag698
aa(lp1101
g972
ag825
ag702
ag700
aa(lp1102
g972
ag825
ag708
ag692
aa(lp1103
g972
ag825
ag708
ag694
aa(lp1104
g972
ag825
ag708
ag696
aa(lp1105
g972
ag825
ag708
ag698
aa(lp1106
g972
ag825
ag708
ag700
aa(lp1107
g972
ag825
ag714
ag692
aa(lp1108
g972
ag825
ag714
ag694
aa(lp1109
g972
ag825
ag714
ag696
aa(lp1110
g972
ag825
ag714
ag698
aa(lp1111
g972
ag825
ag714
ag700
aa(lp1112
g972
ag846
ag691
ag692
aa(lp1113
g972
ag846
ag691
ag694
aa(lp1114
g972
ag846
ag691
ag696
aa(lp1115
g972
ag846
ag691
ag698
aa(lp1116
g972
ag846
ag691
ag700
aa(lp1117
g972
ag846
ag702
ag692
aa(lp1118
g972
ag846
ag702
ag694
aa(lp1119
g972
ag846
ag702
ag696
aa(lp1120
g972
ag846
ag702
ag698
aa(lp1121
g972
ag846
ag702
ag700
aa(lp1122
g972
ag846
ag708
ag692
aa(lp1123
g972
ag846
ag708
ag694
aa(lp1124
g972
ag846
ag708
ag696
aa(lp1125
g972
ag846
ag708
ag698
aa(lp1126
g972
ag846
ag708
ag700
aa(lp1127
g972
ag846
ag714
ag692
aa(lp1128
g972
ag846
ag714
ag694
aa(lp1129
g972
ag846
ag714
ag696
aa(lp1130
g972
ag846
ag714
ag698
aa(lp1131
g972
ag846
ag714
ag700
aa(lp1132
g972
ag867
ag691
ag692
aa(lp1133
g972
ag867
ag691
ag694
aa(lp1134
g972
ag867
ag691
ag696
aa(lp1135
g972
ag867
ag691
ag698
aa(lp1136
g972
ag867
ag691
ag700
aa(lp1137
g972
ag867
ag702
ag692
aa(lp1138
g972
ag867
ag702
ag694
aa(lp1139
g972
ag867
ag702
ag696
aa(lp1140
g972
ag867
ag702
ag698
aa(lp1141
g972
ag867
ag702
ag700
aa(lp1142
g972
ag867
ag708
ag692
aa(lp1143
g972
ag867
ag708
ag694
aa(lp1144
g972
ag867
ag708
ag696
aa(lp1145
g972
ag867
ag708
ag698
aa(lp1146
g972
ag867
ag708
ag700
aa(lp1147
g972
ag867
ag714
ag692
aa(lp1148
g972
ag867
ag714
ag694
aa(lp1149
g972
ag867
ag714
ag696
aa(lp1150
g972
ag867
ag714
ag698
aa(lp1151
g972
ag867
ag714
ag700
aa(lp1152
g972
ag888
ag691
ag692
aa(lp1153
g972
ag888
ag691
ag694
aa(lp1154
g972
ag888
ag691
ag696
aa(lp1155
g972
ag888
ag691
ag698
aa(lp1156
g972
ag888
ag691
ag700
aa(lp1157
g972
ag888
ag702
ag692
aa(lp1158
g972
ag888
ag702
ag694
aa(lp1159
g972
ag888
ag702
ag696
aa(lp1160
g972
ag888
ag702
ag698
aa(lp1161
g972
ag888
ag702
ag700
aa(lp1162
g972
ag888
ag708
ag692
aa(lp1163
g972
ag888
ag708
ag694
aa(lp1164
g972
ag888
ag708
ag696
aa(lp1165
g972
ag888
ag708
ag698
aa(lp1166
g972
ag888
ag708
ag700
aa(lp1167
g972
ag888
ag714
ag692
aa(lp1168
g972
ag888
ag714
ag694
aa(lp1169
g972
ag888
ag714
ag696
aa(lp1170
g972
ag888
ag714
ag698
aa(lp1171
g972
ag888
ag714
ag700
aa(lp1172
g972
ag909
ag691
ag692
aa(lp1173
g972
ag909
ag691
ag694
aa(lp1174
g972
ag909
ag691
ag696
aa(lp1175
g972
ag909
ag691
ag698
aa(lp1176
g972
ag909
ag691
ag700
aa(lp1177
g972
ag909
ag702
ag692
aa(lp1178
g972
ag909
ag702
ag694
aa(lp1179
g972
ag909
ag702
ag696
aa(lp1180
g972
ag909
ag702
ag698
aa(lp1181
g972
ag909
ag702
ag700
aa(lp1182
g972
ag909
ag708
ag692
aa(lp1183
g972
ag909
ag708
ag694
aa(lp1184
g972
ag909
ag708
ag696
aa(lp1185
g972
ag909
ag708
ag698
aa(lp1186
g972
ag909
ag708
ag700
aa(lp1187
g972
ag909
ag714
ag692
aa(lp1188
g972
ag909
ag714
ag694
aa(lp1189
g972
ag909
ag714
ag696
aa(lp1190
g972
ag909
ag714
ag698
aa(lp1191
g972
ag909
ag714
ag700
aa(lp1192
g972
ag930
ag691
ag692
aa(lp1193
g972
ag930
ag691
ag694
aa(lp1194
g972
ag930
ag691
ag696
aa(lp1195
g972
ag930
ag691
ag698
aa(lp1196
g972
ag930
ag691
ag700
aa(lp1197
g972
ag930
ag702
ag692
aa(lp1198
g972
ag930
ag702
ag694
aa(lp1199
g972
ag930
ag702
ag696
aa(lp1200
g972
ag930
ag702
ag698
aa(lp1201
g972
ag930
ag702
ag700
aa(lp1202
g972
ag930
ag708
ag692
aa(lp1203
g972
ag930
ag708
ag694
aa(lp1204
g972
ag930
ag708
ag696
aa(lp1205
g972
ag930
ag708
ag698
aa(lp1206
g972
ag930
ag708
ag700
aa(lp1207
g972
ag930
ag714
ag692
aa(lp1208
g972
ag930
ag714
ag694
aa(lp1209
g972
ag930
ag714
ag696
aa(lp1210
g972
ag930
ag714
ag698
aa(lp1211
g972
ag930
ag714
ag700
aa(lp1212
g972
ag951
ag691
ag692
aa(lp1213
g972
ag951
ag691
ag694
aa(lp1214
g972
ag951
ag691
ag696
aa(lp1215
g972
ag951
ag691
ag698
aa(lp1216
g972
ag951
ag691
ag700
aa(lp1217
g972
ag951
ag702
ag692
aa(lp1218
g972
ag951
ag702
ag694
aa(lp1219
g972
ag951
ag702
ag696
aa(lp1220
g972
ag951
ag702
ag698
aa(lp1221
g972
ag951
ag702
ag700
aa(lp1222
g972
ag951
ag708
ag692
aa(lp1223
g972
ag951
ag708
ag694
aa(lp1224
g972
ag951
ag708
ag696
aa(lp1225
g972
ag951
ag708
ag698
aa(lp1226
g972
ag951
ag708
ag700
aa(lp1227
g972
ag951
ag714
ag692
aa(lp1228
g972
ag951
ag714
ag694
aa(lp1229
g972
ag951
ag714
ag696
aa(lp1230
g972
ag951
ag714
ag698
aa(lp1231
g972
ag951
ag714
ag700
aa(lp1232
S'Bayard'
p1233
ag690
ag691
ag692
aa(lp1234
g1233
ag690
ag691
ag694
aa(lp1235
g1233
ag690
ag691
ag696
aa(lp1236
g1233
ag690
ag691
ag698
aa(lp1237
g1233
ag690
ag691
ag700
aa(lp1238
g1233
ag690
ag702
ag692
aa(lp1239
g1233
ag690
ag702
ag694
aa(lp1240
g1233
ag690
ag702
ag696
aa(lp1241
g1233
ag690
ag702
ag698
aa(lp1242
g1233
ag690
ag702
ag700
aa(lp1243
g1233
ag690
ag708
ag692
aa(lp1244
g1233
ag690
ag708
ag694
aa(lp1245
g1233
ag690
ag708
ag696
aa(lp1246
g1233
ag690
ag708
ag698
aa(lp1247
g1233
ag690
ag708
ag700
aa(lp1248
g1233
ag690
ag714
ag692
aa(lp1249
g1233
ag690
ag714
ag694
aa(lp1250
g1233
ag690
ag714
ag696
aa(lp1251
g1233
ag690
ag714
ag698
aa(lp1252
g1233
ag690
ag714
ag700
aa(lp1253
g1233
ag720
ag691
ag692
aa(lp1254
g1233
ag720
ag691
ag694
aa(lp1255
g1233
ag720
ag691
ag696
aa(lp1256
g1233
ag720
ag691
ag698
aa(lp1257
g1233
ag720
ag691
ag700
aa(lp1258
g1233
ag720
ag702
ag692
aa(lp1259
g1233
ag720
ag702
ag694
aa(lp1260
g1233
ag720
ag702
ag696
aa(lp1261
g1233
ag720
ag702
ag698
aa(lp1262
g1233
ag720
ag702
ag700
aa(lp1263
g1233
ag720
ag708
ag692
aa(lp1264
g1233
ag720
ag708
ag694
aa(lp1265
g1233
ag720
ag708
ag696
aa(lp1266
g1233
ag720
ag708
ag698
aa(lp1267
g1233
ag720
ag708
ag700
aa(lp1268
g1233
ag720
ag714
ag692
aa(lp1269
g1233
ag720
ag714
ag694
aa(lp1270
g1233
ag720
ag714
ag696
aa(lp1271
g1233
ag720
ag714
ag698
aa(lp1272
g1233
ag720
ag714
ag700
aa(lp1273
g1233
ag741
ag691
ag692
aa(lp1274
g1233
ag741
ag691
ag694
aa(lp1275
g1233
ag741
ag691
ag696
aa(lp1276
g1233
ag741
ag691
ag698
aa(lp1277
g1233
ag741
ag691
ag700
aa(lp1278
g1233
ag741
ag702
ag692
aa(lp1279
g1233
ag741
ag702
ag694
aa(lp1280
g1233
ag741
ag702
ag696
aa(lp1281
g1233
ag741
ag702
ag698
aa(lp1282
g1233
ag741
ag702
ag700
aa(lp1283
g1233
ag741
ag708
ag692
aa(lp1284
g1233
ag741
ag708
ag694
aa(lp1285
g1233
ag741
ag708
ag696
aa(lp1286
g1233
ag741
ag708
ag698
aa(lp1287
g1233
ag741
ag708
ag700
aa(lp1288
g1233
ag741
ag714
ag692
aa(lp1289
g1233
ag741
ag714
ag694
aa(lp1290
g1233
ag741
ag714
ag696
aa(lp1291
g1233
ag741
ag714
ag698
aa(lp1292
g1233
ag741
ag714
ag700
aa(lp1293
g1233
ag762
ag691
ag692
aa(lp1294
g1233
ag762
ag691
ag694
aa(lp1295
g1233
ag762
ag691
ag696
aa(lp1296
g1233
ag762
ag691
ag698
aa(lp1297
g1233
ag762
ag691
ag700
aa(lp1298
g1233
ag762
ag702
ag692
aa(lp1299
g1233
ag762
ag702
ag694
aa(lp1300
g1233
ag762
ag702
ag696
aa(lp1301
g1233
ag762
ag702
ag698
aa(lp1302
g1233
ag762
ag702
ag700
aa(lp1303
g1233
ag762
ag708
ag692
aa(lp1304
g1233
ag762
ag708
ag694
aa(lp1305
g1233
ag762
ag708
ag696
aa(lp1306
g1233
ag762
ag708
ag698
aa(lp1307
g1233
ag762
ag708
ag700
aa(lp1308
g1233
ag762
ag714
ag692
aa(lp1309
g1233
ag762
ag714
ag694
aa(lp1310
g1233
ag762
ag714
ag696
aa(lp1311
g1233
ag762
ag714
ag698
aa(lp1312
g1233
ag762
ag714
ag700
aa(lp1313
g1233
ag783
ag691
ag692
aa(lp1314
g1233
ag783
ag691
ag694
aa(lp1315
g1233
ag783
ag691
ag696
aa(lp1316
g1233
ag783
ag691
ag698
aa(lp1317
g1233
ag783
ag691
ag700
aa(lp1318
g1233
ag783
ag702
ag692
aa(lp1319
g1233
ag783
ag702
ag694
aa(lp1320
g1233
ag783
ag702
ag696
aa(lp1321
g1233
ag783
ag702
ag698
aa(lp1322
g1233
ag783
ag702
ag700
aa(lp1323
g1233
ag783
ag708
ag692
aa(lp1324
g1233
ag783
ag708
ag694
aa(lp1325
g1233
ag783
ag708
ag696
aa(lp1326
g1233
ag783
ag708
ag698
aa(lp1327
g1233
ag783
ag708
ag700
aa(lp1328
g1233
ag783
ag714
ag692
aa(lp1329
g1233
ag783
ag714
ag694
aa(lp1330
g1233
ag783
ag714
ag696
aa(lp1331
g1233
ag783
ag714
ag698
aa(lp1332
g1233
ag783
ag714
ag700
aa(lp1333
g1233
ag804
ag691
ag692
aa(lp1334
g1233
ag804
ag691
ag694
aa(lp1335
g1233
ag804
ag691
ag696
aa(lp1336
g1233
ag804
ag691
ag698
aa(lp1337
g1233
ag804
ag691
ag700
aa(lp1338
g1233
ag804
ag702
ag692
aa(lp1339
g1233
ag804
ag702
ag694
aa(lp1340
g1233
ag804
ag702
ag696
aa(lp1341
g1233
ag804
ag702
ag698
aa(lp1342
g1233
ag804
ag702
ag700
aa(lp1343
g1233
ag804
ag708
ag692
aa(lp1344
g1233
ag804
ag708
ag694
aa(lp1345
g1233
ag804
ag708
ag696
aa(lp1346
g1233
ag804
ag708
ag698
aa(lp1347
g1233
ag804
ag708
ag700
aa(lp1348
g1233
ag804
ag714
ag692
aa(lp1349
g1233
ag804
ag714
ag694
aa(lp1350
g1233
ag804
ag714
ag696
aa(lp1351
g1233
ag804
ag714
ag698
aa(lp1352
g1233
ag804
ag714
ag700
aa(lp1353
g1233
ag825
ag691
ag692
aa(lp1354
g1233
ag825
ag691
ag694
aa(lp1355
g1233
ag825
ag691
ag696
aa(lp1356
g1233
ag825
ag691
ag698
aa(lp1357
g1233
ag825
ag691
ag700
aa(lp1358
g1233
ag825
ag702
ag692
aa(lp1359
g1233
ag825
ag702
ag694
aa(lp1360
g1233
ag825
ag702
ag696
aa(lp1361
g1233
ag825
ag702
ag698
aa(lp1362
g1233
ag825
ag702
ag700
aa(lp1363
g1233
ag825
ag708
ag692
aa(lp1364
g1233
ag825
ag708
ag694
aa(lp1365
g1233
ag825
ag708
ag696
aa(lp1366
g1233
ag825
ag708
ag698
aa(lp1367
g1233
ag825
ag708
ag700
aa(lp1368
g1233
ag825
ag714
ag692
aa(lp1369
g1233
ag825
ag714
ag694
aa(lp1370
g1233
ag825
ag714
ag696
aa(lp1371
g1233
ag825
ag714
ag698
aa(lp1372
g1233
ag825
ag714
ag700
aa(lp1373
g1233
ag846
ag691
ag692
aa(lp1374
g1233
ag846
ag691
ag694
aa(lp1375
g1233
ag846
ag691
ag696
aa(lp1376
g1233
ag846
ag691
ag698
aa(lp1377
g1233
ag846
ag691
ag700
aa(lp1378
g1233
ag846
ag702
ag692
aa(lp1379
g1233
ag846
ag702
ag694
aa(lp1380
g1233
ag846
ag702
ag696
aa(lp1381
g1233
ag846
ag702
ag698
aa(lp1382
g1233
ag846
ag702
ag700
aa(lp1383
g1233
ag846
ag708
ag692
aa(lp1384
g1233
ag846
ag708
ag694
aa(lp1385
g1233
ag846
ag708
ag696
aa(lp1386
g1233
ag846
ag708
ag698
aa(lp1387
g1233
ag846
ag708
ag700
aa(lp1388
g1233
ag846
ag714
ag692
aa(lp1389
g1233
ag846
ag714
ag694
aa(lp1390
g1233
ag846
ag714
ag696
aa(lp1391
g1233
ag846
ag714
ag698
aa(lp1392
g1233
ag846
ag714
ag700
aa(lp1393
g1233
ag867
ag691
ag692
aa(lp1394
g1233
ag867
ag691
ag694
aa(lp1395
g1233
ag867
ag691
ag696
aa(lp1396
g1233
ag867
ag691
ag698
aa(lp1397
g1233
ag867
ag691
ag700
aa(lp1398
g1233
ag867
ag702
ag692
aa(lp1399
g1233
ag867
ag702
ag694
aa(lp1400
g1233
ag867
ag702
ag696
aa(lp1401
g1233
ag867
ag702
ag698
aa(lp1402
g1233
ag867
ag702
ag700
aa(lp1403
g1233
ag867
ag708
ag692
aa(lp1404
g1233
ag867
ag708
ag694
aa(lp1405
g1233
ag867
ag708
ag696
aa(lp1406
g1233
ag867
ag708
ag698
aa(lp1407
g1233
ag867
ag708
ag700
aa(lp1408
g1233
ag867
ag714
ag692
aa(lp1409
g1233
ag867
ag714
ag694
aa(lp1410
g1233
ag867
ag714
ag696
aa(lp1411
g1233
ag867
ag714
ag698
aa(lp1412
g1233
ag867
ag714
ag700
aa(lp1413
g1233
ag888
ag691
ag692
aa(lp1414
g1233
ag888
ag691
ag694
aa(lp1415
g1233
ag888
ag691
ag696
aa(lp1416
g1233
ag888
ag691
ag698
aa(lp1417
g1233
ag888
ag691
ag700
aa(lp1418
g1233
ag888
ag702
ag692
aa(lp1419
g1233
ag888
ag702
ag694
aa(lp1420
g1233
ag888
ag702
ag696
aa(lp1421
g1233
ag888
ag702
ag698
aa(lp1422
g1233
ag888
ag702
ag700
aa(lp1423
g1233
ag888
ag708
ag692
aa(lp1424
g1233
ag888
ag708
ag694
aa(lp1425
g1233
ag888
ag708
ag696
aa(lp1426
g1233
ag888
ag708
ag698
aa(lp1427
g1233
ag888
ag708
ag700
aa(lp1428
g1233
ag888
ag714
ag692
aa(lp1429
g1233
ag888
ag714
ag694
aa(lp1430
g1233
ag888
ag714
ag696
aa(lp1431
g1233
ag888
ag714
ag698
aa(lp1432
g1233
ag888
ag714
ag700
aa(lp1433
g1233
ag909
ag691
ag692
aa(lp1434
g1233
ag909
ag691
ag694
aa(lp1435
g1233
ag909
ag691
ag696
aa(lp1436
g1233
ag909
ag691
ag698
aa(lp1437
g1233
ag909
ag691
ag700
aa(lp1438
g1233
ag909
ag702
ag692
aa(lp1439
g1233
ag909
ag702
ag694
aa(lp1440
g1233
ag909
ag702
ag696
aa(lp1441
g1233
ag909
ag702
ag698
aa(lp1442
g1233
ag909
ag702
ag700
aa(lp1443
g1233
ag909
ag708
ag692
aa(lp1444
g1233
ag909
ag708
ag694
aa(lp1445
g1233
ag909
ag708
ag696
aa(lp1446
g1233
ag909
ag708
ag698
aa(lp1447
g1233
ag909
ag708
ag700
aa(lp1448
g1233
ag909
ag714
ag692
aa(lp1449
g1233
ag909
ag714
ag694
aa(lp1450
g1233
ag909
ag714
ag696
aa(lp1451
g1233
ag909
ag714
ag698
aa(lp1452
g1233
ag909
ag714
ag700
aa(lp1453
g1233
ag930
ag691
ag692
aa(lp1454
g1233
ag930
ag691
ag694
aa(lp1455
g1233
ag930
ag691
ag696
aa(lp1456
g1233
ag930
ag691
ag698
aa(lp1457
g1233
ag930
ag691
ag700
aa(lp1458
g1233
ag930
ag702
ag692
aa(lp1459
g1233
ag930
ag702
ag694
aa(lp1460
g1233
ag930
ag702
ag696
aa(lp1461
g1233
ag930
ag702
ag698
aa(lp1462
g1233
ag930
ag702
ag700
aa(lp1463
g1233
ag930
ag708
ag692
aa(lp1464
g1233
ag930
ag708
ag694
aa(lp1465
g1233
ag930
ag708
ag696
aa(lp1466
g1233
ag930
ag708
ag698
aa(lp1467
g1233
ag930
ag708
ag700
aa(lp1468
g1233
ag930
ag714
ag692
aa(lp1469
g1233
ag930
ag714
ag694
aa(lp1470
g1233
ag930
ag714
ag696
aa(lp1471
g1233
ag930
ag714
ag698
aa(lp1472
g1233
ag930
ag714
ag700
aa(lp1473
g1233
ag951
ag691
ag692
aa(lp1474
g1233
ag951
ag691
ag694
aa(lp1475
g1233
ag951
ag691
ag696
aa(lp1476
g1233
ag951
ag691
ag698
aa(lp1477
g1233
ag951
ag691
ag700
aa(lp1478
g1233
ag951
ag702
ag692
aa(lp1479
g1233
ag951
ag702
ag694
aa(lp1480
g1233
ag951
ag702
ag696
aa(lp1481
g1233
ag951
ag702
ag698
aa(lp1482
g1233
ag951
ag702
ag700
aa(lp1483
g1233
ag951
ag708
ag692
aa(lp1484
g1233
ag951
ag708
ag694
aa(lp1485
g1233
ag951
ag708
ag696
aa(lp1486
g1233
ag951
ag708
ag698
aa(lp1487
g1233
ag951
ag708
ag700
aa(lp1488
g1233
ag951
ag714
ag692
aa(lp1489
g1233
ag951
ag714
ag694
aa(lp1490
g1233
ag951
ag714
ag696
aa(lp1491
g1233
ag951
ag714
ag698
aa(lp1492
g1233
ag951
ag714
ag700
aa(lp1493
S'Rustin'
p1494
ag690
ag691
ag692
aa(lp1495
g1494
ag690
ag691
ag694
aa(lp1496
g1494
ag690
ag691
ag696
aa(lp1497
g1494
ag690
ag691
ag698
aa(lp1498
g1494
ag690
ag691
ag700
aa(lp1499
g1494
ag690
ag702
ag692
aa(lp1500
g1494
ag690
ag702
ag694
aa(lp1501
g1494
ag690
ag702
ag696
aa(lp1502
g1494
ag690
ag702
ag698
aa(lp1503
g1494
ag690
ag702
ag700
aa(lp1504
g1494
ag690
ag708
ag692
aa(lp1505
g1494
ag690
ag708
ag694
aa(lp1506
g1494
ag690
ag708
ag696
aa(lp1507
g1494
ag690
ag708
ag698
aa(lp1508
g1494
ag690
ag708
ag700
aa(lp1509
g1494
ag690
ag714
ag692
aa(lp1510
g1494
ag690
ag714
ag694
aa(lp1511
g1494
ag690
ag714
ag696
aa(lp1512
g1494
ag690
ag714
ag698
aa(lp1513
g1494
ag690
ag714
ag700
aa(lp1514
g1494
ag720
ag691
ag692
aa(lp1515
g1494
ag720
ag691
ag694
aa(lp1516
g1494
ag720
ag691
ag696
aa(lp1517
g1494
ag720
ag691
ag698
aa(lp1518
g1494
ag720
ag691
ag700
aa(lp1519
g1494
ag720
ag702
ag692
aa(lp1520
g1494
ag720
ag702
ag694
aa(lp1521
g1494
ag720
ag702
ag696
aa(lp1522
g1494
ag720
ag702
ag698
aa(lp1523
g1494
ag720
ag702
ag700
aa(lp1524
g1494
ag720
ag708
ag692
aa(lp1525
g1494
ag720
ag708
ag694
aa(lp1526
g1494
ag720
ag708
ag696
aa(lp1527
g1494
ag720
ag708
ag698
aa(lp1528
g1494
ag720
ag708
ag700
aa(lp1529
g1494
ag720
ag714
ag692
aa(lp1530
g1494
ag720
ag714
ag694
aa(lp1531
g1494
ag720
ag714
ag696
aa(lp1532
g1494
ag720
ag714
ag698
aa(lp1533
g1494
ag720
ag714
ag700
aa(lp1534
g1494
ag741
ag691
ag692
aa(lp1535
g1494
ag741
ag691
ag694
aa(lp1536
g1494
ag741
ag691
ag696
aa(lp1537
g1494
ag741
ag691
ag698
aa(lp1538
g1494
ag741
ag691
ag700
aa(lp1539
g1494
ag741
ag702
ag692
aa(lp1540
g1494
ag741
ag702
ag694
aa(lp1541
g1494
ag741
ag702
ag696
aa(lp1542
g1494
ag741
ag702
ag698
aa(lp1543
g1494
ag741
ag702
ag700
aa(lp1544
g1494
ag741
ag708
ag692
aa(lp1545
g1494
ag741
ag708
ag694
aa(lp1546
g1494
ag741
ag708
ag696
aa(lp1547
g1494
ag741
ag708
ag698
aa(lp1548
g1494
ag741
ag708
ag700
aa(lp1549
g1494
ag741
ag714
ag692
aa(lp1550
g1494
ag741
ag714
ag694
aa(lp1551
g1494
ag741
ag714
ag696
aa(lp1552
g1494
ag741
ag714
ag698
aa(lp1553
g1494
ag741
ag714
ag700
aa(lp1554
g1494
ag762
ag691
ag692
aa(lp1555
g1494
ag762
ag691
ag694
aa(lp1556
g1494
ag762
ag691
ag696
aa(lp1557
g1494
ag762
ag691
ag698
aa(lp1558
g1494
ag762
ag691
ag700
aa(lp1559
g1494
ag762
ag702
ag692
aa(lp1560
g1494
ag762
ag702
ag694
aa(lp1561
g1494
ag762
ag702
ag696
aa(lp1562
g1494
ag762
ag702
ag698
aa(lp1563
g1494
ag762
ag702
ag700
aa(lp1564
g1494
ag762
ag708
ag692
aa(lp1565
g1494
ag762
ag708
ag694
aa(lp1566
g1494
ag762
ag708
ag696
aa(lp1567
g1494
ag762
ag708
ag698
aa(lp1568
g1494
ag762
ag708
ag700
aa(lp1569
g1494
ag762
ag714
ag692
aa(lp1570
g1494
ag762
ag714
ag694
aa(lp1571
g1494
ag762
ag714
ag696
aa(lp1572
g1494
ag762
ag714
ag698
aa(lp1573
g1494
ag762
ag714
ag700
aa(lp1574
g1494
ag783
ag691
ag692
aa(lp1575
g1494
ag783
ag691
ag694
aa(lp1576
g1494
ag783
ag691
ag696
aa(lp1577
g1494
ag783
ag691
ag698
aa(lp1578
g1494
ag783
ag691
ag700
aa(lp1579
g1494
ag783
ag702
ag692
aa(lp1580
g1494
ag783
ag702
ag694
aa(lp1581
g1494
ag783
ag702
ag696
aa(lp1582
g1494
ag783
ag702
ag698
aa(lp1583
g1494
ag783
ag702
ag700
aa(lp1584
g1494
ag783
ag708
ag692
aa(lp1585
g1494
ag783
ag708
ag694
aa(lp1586
g1494
ag783
ag708
ag696
aa(lp1587
g1494
ag783
ag708
ag698
aa(lp1588
g1494
ag783
ag708
ag700
aa(lp1589
g1494
ag783
ag714
ag692
aa(lp1590
g1494
ag783
ag714
ag694
aa(lp1591
g1494
ag783
ag714
ag696
aa(lp1592
g1494
ag783
ag714
ag698
aa(lp1593
g1494
ag783
ag714
ag700
aa(lp1594
g1494
ag804
ag691
ag692
aa(lp1595
g1494
ag804
ag691
ag694
aa(lp1596
g1494
ag804
ag691
ag696
aa(lp1597
g1494
ag804
ag691
ag698
aa(lp1598
g1494
ag804
ag691
ag700
aa(lp1599
g1494
ag804
ag702
ag692
aa(lp1600
g1494
ag804
ag702
ag694
aa(lp1601
g1494
ag804
ag702
ag696
aa(lp1602
g1494
ag804
ag702
ag698
aa(lp1603
g1494
ag804
ag702
ag700
aa(lp1604
g1494
ag804
ag708
ag692
aa(lp1605
g1494
ag804
ag708
ag694
aa(lp1606
g1494
ag804
ag708
ag696
aa(lp1607
g1494
ag804
ag708
ag698
aa(lp1608
g1494
ag804
ag708
ag700
aa(lp1609
g1494
ag804
ag714
ag692
aa(lp1610
g1494
ag804
ag714
ag694
aa(lp1611
g1494
ag804
ag714
ag696
aa(lp1612
g1494
ag804
ag714
ag698
aa(lp1613
g1494
ag804
ag714
ag700
aa(lp1614
g1494
ag825
ag691
ag692
aa(lp1615
g1494
ag825
ag691
ag694
aa(lp1616
g1494
ag825
ag691
ag696
aa(lp1617
g1494
ag825
ag691
ag698
aa(lp1618
g1494
ag825
ag691
ag700
aa(lp1619
g1494
ag825
ag702
ag692
aa(lp1620
g1494
ag825
ag702
ag694
aa(lp1621
g1494
ag825
ag702
ag696
aa(lp1622
g1494
ag825
ag702
ag698
aa(lp1623
g1494
ag825
ag702
ag700
aa(lp1624
g1494
ag825
ag708
ag692
aa(lp1625
g1494
ag825
ag708
ag694
aa(lp1626
g1494
ag825
ag708
ag696
aa(lp1627
g1494
ag825
ag708
ag698
aa(lp1628
g1494
ag825
ag708
ag700
aa(lp1629
g1494
ag825
ag714
ag692
aa(lp1630
g1494
ag825
ag714
ag694
aa(lp1631
g1494
ag825
ag714
ag696
aa(lp1632
g1494
ag825
ag714
ag698
aa(lp1633
g1494
ag825
ag714
ag700
aa(lp1634
g1494
ag846
ag691
ag692
aa(lp1635
g1494
ag846
ag691
ag694
aa(lp1636
g1494
ag846
ag691
ag696
aa(lp1637
g1494
ag846
ag691
ag698
aa(lp1638
g1494
ag846
ag691
ag700
aa(lp1639
g1494
ag846
ag702
ag692
aa(lp1640
g1494
ag846
ag702
ag694
aa(lp1641
g1494
ag846
ag702
ag696
aa(lp1642
g1494
ag846
ag702
ag698
aa(lp1643
g1494
ag846
ag702
ag700
aa(lp1644
g1494
ag846
ag708
ag692
aa(lp1645
g1494
ag846
ag708
ag694
aa(lp1646
g1494
ag846
ag708
ag696
aa(lp1647
g1494
ag846
ag708
ag698
aa(lp1648
g1494
ag846
ag708
ag700
aa(lp1649
g1494
ag846
ag714
ag692
aa(lp1650
g1494
ag846
ag714
ag694
aa(lp1651
g1494
ag846
ag714
ag696
aa(lp1652
g1494
ag846
ag714
ag698
aa(lp1653
g1494
ag846
ag714
ag700
aa(lp1654
g1494
ag867
ag691
ag692
aa(lp1655
g1494
ag867
ag691
ag694
aa(lp1656
g1494
ag867
ag691
ag696
aa(lp1657
g1494
ag867
ag691
ag698
aa(lp1658
g1494
ag867
ag691
ag700
aa(lp1659
g1494
ag867
ag702
ag692
aa(lp1660
g1494
ag867
ag702
ag694
aa(lp1661
g1494
ag867
ag702
ag696
aa(lp1662
g1494
ag867
ag702
ag698
aa(lp1663
g1494
ag867
ag702
ag700
aa(lp1664
g1494
ag867
ag708
ag692
aa(lp1665
g1494
ag867
ag708
ag694
aa(lp1666
g1494
ag867
ag708
ag696
aa(lp1667
g1494
ag867
ag708
ag698
aa(lp1668
g1494
ag867
ag708
ag700
aa(lp1669
g1494
ag867
ag714
ag692
aa(lp1670
g1494
ag867
ag714
ag694
aa(lp1671
g1494
ag867
ag714
ag696
aa(lp1672
g1494
ag867
ag714
ag698
aa(lp1673
g1494
ag867
ag714
ag700
aa(lp1674
g1494
ag888
ag691
ag692
aa(lp1675
g1494
ag888
ag691
ag694
aa(lp1676
g1494
ag888
ag691
ag696
aa(lp1677
g1494
ag888
ag691
ag698
aa(lp1678
g1494
ag888
ag691
ag700
aa(lp1679
g1494
ag888
ag702
ag692
aa(lp1680
g1494
ag888
ag702
ag694
aa(lp1681
g1494
ag888
ag702
ag696
aa(lp1682
g1494
ag888
ag702
ag698
aa(lp1683
g1494
ag888
ag702
ag700
aa(lp1684
g1494
ag888
ag708
ag692
aa(lp1685
g1494
ag888
ag708
ag694
aa(lp1686
g1494
ag888
ag708
ag696
aa(lp1687
g1494
ag888
ag708
ag698
aa(lp1688
g1494
ag888
ag708
ag700
aa(lp1689
g1494
ag888
ag714
ag692
aa(lp1690
g1494
ag888
ag714
ag694
aa(lp1691
g1494
ag888
ag714
ag696
aa(lp1692
g1494
ag888
ag714
ag698
aa(lp1693
g1494
ag888
ag714
ag700
aa(lp1694
g1494
ag909
ag691
ag692
aa(lp1695
g1494
ag909
ag691
ag694
aa(lp1696
g1494
ag909
ag691
ag696
aa(lp1697
g1494
ag909
ag691
ag698
aa(lp1698
g1494
ag909
ag691
ag700
aa(lp1699
g1494
ag909
ag702
ag692
aa(lp1700
g1494
ag909
ag702
ag694
aa(lp1701
g1494
ag909
ag702
ag696
aa(lp1702
g1494
ag909
ag702
ag698
aa(lp1703
g1494
ag909
ag702
ag700
aa(lp1704
g1494
ag909
ag708
ag692
aa(lp1705
g1494
ag909
ag708
ag694
aa(lp1706
g1494
ag909
ag708
ag696
aa(lp1707
g1494
ag909
ag708
ag698
aa(lp1708
g1494
ag909
ag708
ag700
aa(lp1709
g1494
ag909
ag714
ag692
aa(lp1710
g1494
ag909
ag714
ag694
aa(lp1711
g1494
ag909
ag714
ag696
aa(lp1712
g1494
ag909
ag714
ag698
aa(lp1713
g1494
ag909
ag714
ag700
aa(lp1714
g1494
ag930
ag691
ag692
aa(lp1715
g1494
ag930
ag691
ag694
aa(lp1716
g1494
ag930
ag691
ag696
aa(lp1717
g1494
ag930
ag691
ag698
aa(lp1718
g1494
ag930
ag691
ag700
aa(lp1719
g1494
ag930
ag702
ag692
aa(lp1720
g1494
ag930
ag702
ag694
aa(lp1721
g1494
ag930
ag702
ag696
aa(lp1722
g1494
ag930
ag702
ag698
aa(lp1723
g1494
ag930
ag702
ag700
aa(lp1724
g1494
ag930
ag708
ag692
aa(lp1725
g1494
ag930
ag708
ag694
aa(lp1726
g1494
ag930
ag708
ag696
aa(lp1727
g1494
ag930
ag708
ag698
aa(lp1728
g1494
ag930
ag708
ag700
aa(lp1729
g1494
ag930
ag714
ag692
aa(lp1730
g1494
ag930
ag714
ag694
aa(lp1731
g1494
ag930
ag714
ag696
aa(lp1732
g1494
ag930
ag714
ag698
aa(lp1733
g1494
ag930
ag714
ag700
aa(lp1734
g1494
ag951
ag691
ag692
aa(lp1735
g1494
ag951
ag691
ag694
aa(lp1736
g1494
ag951
ag691
ag696
aa(lp1737
g1494
ag951
ag691
ag698
aa(lp1738
g1494
ag951
ag691
ag700
aa(lp1739
g1494
ag951
ag702
ag692
aa(lp1740
g1494
ag951
ag702
ag694
aa(lp1741
g1494
ag951
ag702
ag696
aa(lp1742
g1494
ag951
ag702
ag698
aa(lp1743
g1494
ag951
ag702
ag700
aa(lp1744
g1494
ag951
ag708
ag692
aa(lp1745
g1494
ag951
ag708
ag694
aa(lp1746
g1494
ag951
ag708
ag696
aa(lp1747
g1494
ag951
ag708
ag698
aa(lp1748
g1494
ag951
ag708
ag700
aa(lp1749
g1494
ag951
ag714
ag692
aa(lp1750
g1494
ag951
ag714
ag694
aa(lp1751
g1494
ag951
ag714
ag696
aa(lp1752
g1494
ag951
ag714
ag698
aa(lp1753
g1494
ag951
ag714
ag700
aasS'orlando'
p1754
(lp1755
(lp1756
S'Waheeb'
p1757
aS'Bakr'
p1758
aS'Pulse'
p1759
aa(lp1760
g1757
ag1758
aS'nightclub'
p1761
aa(lp1762
g1757
aS'al-Baghdadi'
p1763
ag1759
aa(lp1764
g1757
ag1763
ag1761
aa(lp1765
g1757
aS'Omar'
p1766
ag1759
aa(lp1767
g1757
ag1766
ag1761
aa(lp1768
g1757
aS'Mateen'
p1769
ag1759
aa(lp1770
g1757
ag1769
ag1761
aa(lp1771
g1757
aS'Islamic State of Iraq and the Levant'
p1772
ag1759
aa(lp1773
g1757
ag1772
ag1761
aa(lp1774
g1757
aS'ISIL'
p1775
ag1759
aa(lp1776
g1757
ag1775
ag1761
aasS'vtshooting'
p1777
(lp1778
(lp1779
S'Seung-hui'
p1780
aS'Emily'
p1781
aS'Ambler'
p1782
aa(lp1783
g1780
ag1781
aS'Johnston'
p1784
aa(lp1785
g1780
ag1781
aS'Hall'
p1786
aa(lp1787
g1780
aS'Hilscher'
p1788
ag1782
aa(lp1789
g1780
ag1788
ag1784
aa(lp1790
g1780
ag1788
ag1786
aa(lp1791
S'Seung-hui Cho'
p1792
ag1781
ag1782
aa(lp1793
g1792
ag1781
ag1784
aa(lp1794
g1792
ag1781
ag1786
aa(lp1795
g1792
ag1788
ag1782
aa(lp1796
g1792
ag1788
ag1784
aa(lp1797
g1792
ag1788
ag1786
aa(lp1798
S'Seung-hui'
p1799
aS'Ryan'
p1800
aS'Ambler'
p1801
aa(lp1802
g1799
ag1800
aS'Johnston'
p1803
aa(lp1804
g1799
ag1800
aS'Hall'
p1805
aa(lp1806
g1799
aS'Clark'
p1807
ag1801
aa(lp1808
g1799
ag1807
ag1803
aa(lp1809
g1799
ag1807
ag1805
aa(lp1810
S'Seung-hui Cho'
p1811
ag1800
ag1801
aa(lp1812
g1811
ag1800
ag1803
aa(lp1813
g1811
ag1800
ag1805
aa(lp1814
g1811
ag1807
ag1801
aa(lp1815
g1811
ag1807
ag1803
aa(lp1816
g1811
ag1807
ag1805
aa(lp1817
S'Seung-hui'
p1818
aS'Ambler'
p1819
aS'NBC'
p1820
aS'Norris'
p1821
aa(lp1822
g1818
ag1819
ag1820
aS'Hall'
p1823
aa(lp1824
g1818
aS'Johnston'
p1825
ag1820
ag1821
aa(lp1826
g1818
ag1825
ag1820
ag1823
aa(lp1827
S'Seung-hui Cho'
p1828
ag1819
ag1820
ag1821
aa(lp1829
g1828
ag1819
ag1820
ag1823
aa(lp1830
g1828
ag1825
ag1820
ag1821
aa(lp1831
g1828
ag1825
ag1820
ag1823
aa(lp1832
S'Seung-hui'
p1833
aS'manifesto'
p1834
aS'NBC'
p1835
aa(lp1836
S'Seung-hui Cho'
p1837
ag1834
ag1835
aa(lp1838
S'Seung-hui'
p1839
aS'video'
p1840
aS'NBC'
p1841
aa(lp1842
S'Seung-hui Cho'
p1843
ag1840
ag1841
aa(lp1844
S'Seung-hui'
p1845
aS'Haiyan'
p1846
aS'Hall'
p1847
aa(lp1848
g1845
ag1846
aS'Norris'
p1849
aa(lp1850
g1845
aS'Cheng'
p1851
ag1847
aa(lp1852
g1845
ag1851
ag1849
aa(lp1853
S'Seung-hui Cho'
p1854
ag1846
ag1847
aa(lp1855
g1854
ag1846
ag1849
aa(lp1856
g1854
ag1851
ag1847
aa(lp1857
g1854
ag1851
ag1849
aa(lp1858
S'Seung-hui'
p1859
aS'Jamie'
p1860
aS'Hall'
p1861
aa(lp1862
g1859
ag1860
aS'Norris'
p1863
aa(lp1864
g1859
aS'Bishop'
p1865
ag1861
aa(lp1866
g1859
ag1865
ag1863
aa(lp1867
S'Seung-hui Cho'
p1868
ag1860
ag1861
aa(lp1869
g1868
ag1860
ag1863
aa(lp1870
g1868
ag1865
ag1861
aa(lp1871
g1868
ag1865
ag1863
aa(lp1872
S'Seung-hui'
p1873
aS'Loganathan'
p1874
aS'Hall'
p1875
aa(lp1876
g1873
ag1874
aS'Norris'
p1877
aa(lp1878
S'Seung-hui Cho'
p1879
ag1874
ag1875
aa(lp1880
g1879
ag1874
ag1877
aa(lp1881
S'Seung-hui'
p1882
aS'Jocelyne'
p1883
aS'Norris'
p1884
aa(lp1885
g1882
ag1883
aS'Hall'
p1886
aa(lp1887
g1882
aS'Couture-Nowak'
p1888
ag1884
aa(lp1889
g1882
ag1888
ag1886
aa(lp1890
S'Seung-hui Cho'
p1891
ag1883
ag1884
aa(lp1892
g1891
ag1883
ag1886
aa(lp1893
g1891
ag1888
ag1884
aa(lp1894
g1891
ag1888
ag1886
aa(lp1895
S'Seung-hui'
p1896
aS'Liviu'
p1897
aS'Norris Hall'
p1898
aa(lp1899
g1896
ag1897
aS'Norris'
p1900
aa(lp1901
g1896
aS'Librescu'
p1902
ag1898
aa(lp1903
g1896
ag1902
ag1900
aa(lp1904
S'Seung-hui Cho'
p1905
ag1897
ag1898
aa(lp1906
g1905
ag1897
ag1900
aa(lp1907
g1905
ag1902
ag1898
aa(lp1908
g1905
ag1902
ag1900
aa(lp1909
S'Seung-hui'
p1910
aS'Kevin Granata'
p1911
aS'Norris'
p1912
aa(lp1913
g1910
ag1911
aS'Hall'
p1914
aa(lp1915
g1910
aS'Kevin'
p1916
ag1912
aa(lp1917
g1910
ag1916
ag1914
aa(lp1918
S'Seung-hui Cho'
p1919
ag1911
ag1912
aa(lp1920
g1919
ag1911
ag1914
aa(lp1921
g1919
ag1916
ag1912
aa(lp1922
g1919
ag1916
ag1914
aa(lp1923
S'Anxiety'
p1924
aS'Seung-hui'
p1925
aS'shooting'
p1926
aa(lp1927
g1924
ag1925
aS'attack'
p1928
aa(lp1929
g1924
ag1925
aS'kill'
p1930
aa(lp1931
g1924
ag1925
aS'killing'
p1932
aa(lp1933
g1924
aS'Cho'
p1934
ag1926
aa(lp1935
g1924
ag1934
ag1928
aa(lp1936
g1924
ag1934
ag1930
aa(lp1937
g1924
ag1934
ag1932
aa(lp1938
S'disorder'
p1939
ag1925
ag1926
aa(lp1940
g1939
ag1925
ag1928
aa(lp1941
g1939
ag1925
ag1930
aa(lp1942
g1939
ag1925
ag1932
aa(lp1943
g1939
ag1934
ag1926
aa(lp1944
g1939
ag1934
ag1928
aa(lp1945
g1939
ag1934
ag1930
aa(lp1946
g1939
ag1934
ag1932
aa(lp1947
S'mental'
p1948
ag1925
ag1926
aa(lp1949
g1948
ag1925
ag1928
aa(lp1950
g1948
ag1925
ag1930
aa(lp1951
g1948
ag1925
ag1932
aa(lp1952
g1948
ag1934
ag1926
aa(lp1953
g1948
ag1934
ag1928
aa(lp1954
g1948
ag1934
ag1930
aa(lp1955
g1948
ag1934
ag1932
aa(lp1956
S'ill'
p1957
ag1925
ag1926
aa(lp1958
g1957
ag1925
ag1928
aa(lp1959
g1957
ag1925
ag1930
aa(lp1960
g1957
ag1925
ag1932
aa(lp1961
g1957
ag1934
ag1926
aa(lp1962
g1957
ag1934
ag1928
aa(lp1963
g1957
ag1934
ag1930
aa(lp1964
g1957
ag1934
ag1932
aa(lp1965
S'therapy'
p1966
ag1925
ag1926
aa(lp1967
g1966
ag1925
ag1928
aa(lp1968
g1966
ag1925
ag1930
aa(lp1969
g1966
ag1925
ag1932
aa(lp1970
g1966
ag1934
ag1926
aa(lp1971
g1966
ag1934
ag1928
aa(lp1972
g1966
ag1934
ag1930
aa(lp1973
g1966
ag1934
ag1932
aa(lp1974
S'autism'
p1975
ag1925
ag1926
aa(lp1976
g1975
ag1925
ag1928
aa(lp1977
g1975
ag1925
ag1930
aa(lp1978
g1975
ag1925
ag1932
aa(lp1979
g1975
ag1934
ag1926
aa(lp1980
g1975
ag1934
ag1928
aa(lp1981
g1975
ag1934
ag1930
aa(lp1982
g1975
ag1934
ag1932
aa(lp1983
S'Korea'
p1984
aS'Seung-hui'
p1985
aS'US'
p1986
aa(lp1987
g1984
ag1985
aS'Centreville'
p1988
aa(lp1989
g1984
ag1985
aS'Virginia'
p1990
aa(lp1991
g1984
aS'Seung-hui Cho'
p1992
ag1986
aa(lp1993
g1984
ag1992
ag1988
aa(lp1994
g1984
ag1992
ag1990
aa(lp1995
S'Korean'
p1996
aS'Seung-hui'
p1997
aS'US'
p1998
aa(lp1999
g1996
ag1997
aS'Centreville'
p2000
aa(lp2001
g1996
ag1997
aS'Virginia'
p2002
aa(lp2003
g1996
aS'Seung-hui Cho'
p2004
ag1998
aa(lp2005
g1996
ag2004
ag2000
aa(lp2006
g1996
ag2004
ag2002
aa(lp2007
S'Seung-hui'
p2008
aS"Cho's family"
p2009
aS'victims'
p2010
aa(lp2011
S'Seung-hui Cho'
p2012
ag2009
ag2010
aa(lp2013
S'Seung-hui'
p2014
aS'Sun-Kyung'
p2015
aS'victims'
p2016
aa(lp2017
S'Seung-hui Cho'
p2018
ag2015
ag2016
aa(lp2019
S'shooting'
p2020
aS'National Instant Criminal Background Check System'
p2021
aS'George'
p2022
aa(lp2023
g2020
ag2021
aS'Bush'
p2024
aa(lp2025
g2020
aS'NICS'
p2026
ag2022
aa(lp2027
g2020
ag2026
ag2024
aa(lp2028
S'gun'
p2029
ag2021
ag2022
aa(lp2030
g2029
ag2021
ag2024
aa(lp2031
g2029
ag2026
ag2022
aa(lp2032
g2029
ag2026
ag2024
aa(lp2033
S'shooting'
p2034
aS'FERPA'
p2035
aS'U.S. Department of Education'
p2036
aa(lp2037
g2034
ag2035
aS'ED'
p2038
aa(lp2039
g2034
aS'Family Educational Rights and Privacy Act'
p2040
ag2036
aa(lp2041
g2034
ag2040
ag2038
aa(lp2042
S'Kaine'
p2043
aS'Tom'
p2044
aS'shooting'
p2045
aa(lp2046
g2043
ag2044
aS'gun'
p2047
aa(lp2048
g2043
aS'Ridge'
p2049
ag2045
aa(lp2050
g2043
ag2049
ag2047
aa(lp2051
S'Tim'
p2052
ag2044
ag2045
aa(lp2053
g2052
ag2044
ag2047
aa(lp2054
g2052
ag2049
ag2045
aa(lp2055
g2052
ag2049
ag2047
aa(lp2056
S'shooting'
p2057
aS'National Instant Criminal Background Check System'
p2058
aS'Brady'
p2059
aa(lp2060
g2057
aS'NICS'
p2061
ag2059
aa(lp2062
S'gun'
p2063
ag2058
ag2059
aa(lp2064
g2063
ag2061
ag2059
aa(lp2065
S'shooting'
p2066
aS'National Instant Criminal Background Check System'
p2067
aS'National Rifle Association'
p2068
aa(lp2069
g2066
ag2067
aS'NRA'
p2070
aa(lp2071
g2066
aS'NICS'
p2072
ag2068
aa(lp2073
g2066
ag2072
ag2070
aa(lp2074
S'gun'
p2075
ag2067
ag2068
aa(lp2076
g2075
ag2067
ag2070
aa(lp2077
g2075
ag2072
ag2068
aa(lp2078
g2075
ag2072
ag2070
aasS'bernardino'
p2079
(lp2080
(lp2081
S'Enrique'
p2082
aS'Syed'
p2083
aS'Bernardino'
p2084
aa(lp2085
g2082
ag2083
aS'Inland'
p2086
aa(lp2087
g2082
aS'Rizwan'
p2088
ag2084
aa(lp2089
g2082
ag2088
ag2086
aa(lp2090
g2082
aS'Farook'
p2091
ag2084
aa(lp2092
g2082
ag2091
ag2086
aa(lp2093
g2082
aS'Tashfeen'
p2094
ag2084
aa(lp2095
g2082
ag2094
ag2086
aa(lp2096
g2082
aS'Malik'
p2097
ag2084
aa(lp2098
g2082
ag2097
ag2086
aa(lp2099
S'Marquez'
p2100
ag2083
ag2084
aa(lp2101
g2100
ag2083
ag2086
aa(lp2102
g2100
ag2088
ag2084
aa(lp2103
g2100
ag2088
ag2086
aa(lp2104
g2100
ag2091
ag2084
aa(lp2105
g2100
ag2091
ag2086
aa(lp2106
g2100
ag2094
ag2084
aa(lp2107
g2100
ag2094
ag2086
aa(lp2108
g2100
ag2097
ag2084
aa(lp2109
g2100
ag2097
ag2086
aasS'wall'
p2110
(lp2111
(lp2112
S'Income'
p2113
aS'adbusters'
p2114
aS'Zuccotti'
p2115
aa(lp2116
g2113
ag2114
aS'Park'
p2117
aa(lp2118
g2113
ag2114
aS'new'
p2119
aa(lp2120
g2113
ag2114
aS'york'
p2121
aa(lp2122
g2113
ag2114
aS'new york'
p2123
aa(lp2124
S'inequality'
p2125
ag2114
ag2115
aa(lp2126
g2125
ag2114
ag2117
aa(lp2127
g2125
ag2114
ag2119
aa(lp2128
g2125
ag2114
ag2121
aa(lp2129
g2125
ag2114
ag2123
aasS'church'
p2130
(lp2131
(lp2132
S'White supremacy'
p2133
aS'Dylann'
p2134
aS'Clementa'
p2135
aa(lp2136
g2133
ag2134
aS'Pinckney'
p2137
aa(lp2138
g2133
ag2134
aS'Charleston'
p2139
aa(lp2140
g2133
ag2134
aS'church'
p2141
aa(lp2142
g2133
aS'Roof'
p2143
ag2135
aa(lp2144
g2133
ag2143
ag2137
aa(lp2145
g2133
ag2143
ag2139
aa(lp2146
g2133
ag2143
ag2141
aa(lp2147
S'racism'
p2148
ag2134
ag2135
aa(lp2149
g2148
ag2134
ag2137
aa(lp2150
g2148
ag2134
ag2139
aa(lp2151
g2148
ag2134
ag2141
aa(lp2152
g2148
ag2143
ag2135
aa(lp2153
g2148
ag2143
ag2137
aa(lp2154
g2148
ag2143
ag2139
aa(lp2155
g2148
ag2143
ag2141
aasS'isla'
p2156
(lp2157
(lp2158
S'manifesto'
p2159
aS'Elliot'
p2160
aS'UCSB'
p2161
aa(lp2162
g2159
ag2160
aS'women'
p2163
aa(lp2164
g2159
aS'Rodger'
p2165
ag2161
aa(lp2166
g2159
ag2165
ag2163
aa(lp2167
S'rejected'
p2168
ag2160
ag2161
aa(lp2169
g2168
ag2160
ag2163
aa(lp2170
g2168
ag2165
ag2161
aa(lp2171
g2168
ag2165
ag2163
aa(lp2172
S'women'
p2173
ag2160
ag2161
aa(lp2174
g2173
ag2160
ag2163
aa(lp2175
g2173
ag2165
ag2161
aa(lp2176
g2173
ag2165
ag2163
aa(lp2177
S'retribution'
p2178
ag2160
ag2161
aa(lp2179
g2178
ag2160
ag2163
aa(lp2180
g2178
ag2165
ag2161
aa(lp2181
g2178
ag2165
ag2163
aa(lp2182
S'Misogyny'
p2183
ag2160
ag2161
aa(lp2184
g2183
ag2160
ag2163
aa(lp2185
g2183
ag2165
ag2161
aa(lp2186
g2183
ag2165
ag2163
aasS'911'
p2187
(lp2188
(lp2189
S'Israel'
p2190
aS'Laden'
p2191
aS'Al-qaeda'
p2192
aS'United States'
p2193
aa(lp2194
g2190
ag2191
ag2192
aS'us'
p2195
aa(lp2196
g2190
ag2191
ag2192
aS'u.s.'
p2197
aa(lp2198
S'Saudi'
p2199
aS'Laden'
p2200
aS'Al-qaeda'
p2201
aS'United States'
p2202
aa(lp2203
g2199
ag2200
ag2201
aS'us'
p2204
aa(lp2205
g2199
ag2200
ag2201
aS'u.s.'
p2206
aa(lp2207
S'Arabia'
p2208
ag2200
ag2201
ag2202
aa(lp2209
g2208
ag2200
ag2201
ag2204
aa(lp2210
g2208
ag2200
ag2201
ag2206
aa(lp2211
S'Iraq'
p2212
aS'Osama bin Laden'
p2213
aS'Al-qaeda'
p2214
aS'United States'
p2215
aa(lp2216
g2212
ag2213
ag2214
aS'us'
p2217
aa(lp2218
g2212
ag2213
ag2214
aS'u.s.'
p2219
aa(lp2220
S'Laden'
p2221
aS'Al-qaeda'
p2222
aS'airliners'
p2223
aS'World Trade Center'
p2224
aS'New York'
p2225
aS'World trade center site'
p2226
aa(lp2227
g2221
ag2222
ag2223
ag2224
ag2225
aS'Memorial competition'
p2228
aa(lp2229
g2221
ag2222
aS'American Airlines'
p2230
ag2224
ag2225
ag2226
aa(lp2231
g2221
ag2222
ag2230
ag2224
ag2225
ag2228
aa(lp2232
g2221
ag2222
aS'Flight'
p2233
ag2224
ag2225
ag2226
aa(lp2234
g2221
ag2222
ag2233
ag2224
ag2225
ag2228
aa(lp2235
g2221
ag2222
aS'11'
p2236
ag2224
ag2225
ag2226
aa(lp2237
g2221
ag2222
ag2236
ag2224
ag2225
ag2228
aa(lp2238
g2221
ag2222
aS'United Airlines'
p2239
ag2224
ag2225
ag2226
aa(lp2240
g2221
ag2222
ag2239
ag2224
ag2225
ag2228
aa(lp2241
g2221
ag2222
aS'175'
p2242
ag2224
ag2225
ag2226
aa(lp2243
g2221
ag2222
ag2242
ag2224
ag2225
ag2228
aa(lp2244
S'Laden'
p2245
aS'Al-qaeda'
p2246
aS'airliners'
p2247
aS'Pentagon'
p2248
aS'Arlington'
p2249
aS'pentagon memorial'
p2250
aa(lp2251
g2245
ag2246
ag2247
ag2248
aS'Virginia'
p2252
ag2250
aa(lp2253
g2245
ag2246
aS'American Airlines'
p2254
ag2248
ag2249
ag2250
aa(lp2255
g2245
ag2246
ag2254
ag2248
ag2252
ag2250
aa(lp2256
g2245
ag2246
aS'Flight'
p2257
ag2248
ag2249
ag2250
aa(lp2258
g2245
ag2246
ag2257
ag2248
ag2252
ag2250
aa(lp2259
g2245
ag2246
aS'77'
p2260
ag2248
ag2249
ag2250
aa(lp2261
g2245
ag2246
ag2260
ag2248
ag2252
ag2250
aa(lp2262
S'Laden'
p2263
aS'Al-qaeda'
p2264
aS'airliners'
p2265
aS'Washington'
p2266
aS' Flight 93 Memorial'
p2267
aa(lp2268
g2263
ag2264
ag2265
aS'D.C.'
p2269
ag2267
aa(lp2270
g2263
ag2264
ag2265
aS'capitol'
p2271
ag2267
aa(lp2272
g2263
ag2264
ag2265
aS'white house'
p2273
ag2267
aa(lp2274
g2263
ag2264
aS'United Airlines'
p2275
ag2266
ag2267
aa(lp2276
g2263
ag2264
ag2275
ag2269
ag2267
aa(lp2277
g2263
ag2264
ag2275
ag2271
ag2267
aa(lp2278
g2263
ag2264
ag2275
ag2273
ag2267
aa(lp2279
g2263
ag2264
aS'Flight 93'
p2280
ag2266
ag2267
aa(lp2281
g2263
ag2264
ag2280
ag2269
ag2267
aa(lp2282
g2263
ag2264
ag2280
ag2271
ag2267
aa(lp2283
g2263
ag2264
ag2280
ag2273
ag2267
aa(lp2284
S'Laden'
p2285
aS'Al-qaeda'
p2286
aS'airliners'
p2287
aS'Stonycreek Township'
p2288
aS'Flight 93 Memorial'
p2289
aa(lp2290
g2285
ag2286
aS'United Airlines'
p2291
ag2288
ag2289
aa(lp2292
g2285
ag2286
aS'Flight 93'
p2293
ag2288
ag2289
aa(lp2294
S'Laden'
p2295
aS'Mohammed'
p2296
aS'al-shibh'
p2297
aS'Atta'
p2298
aa(lp2299
S'Laden'
p2300
aS'Atef'
p2301
aS'hijacker'
p2302
aa(lp2303
S'Laden'
p2304
aS'Hazmi'
p2305
aS'hani'
p2306
aa(lp2307
g2304
ag2305
aS'hanjour'
p2308
aa(lp2309
g2304
aS'Nawaf'
p2310
ag2306
aa(lp2311
g2304
ag2310
ag2308
aa(lp2312
g2304
aS'al-hazmi'
p2313
ag2306
aa(lp2314
g2304
ag2313
ag2308
aa(lp2315
S'Laden'
p2316
aS'Mihdhar'
p2317
aS'hani'
p2318
aa(lp2319
g2316
ag2317
aS'hanjour'
p2320
aa(lp2321
S'911'
p2322
aS'Osama bin Laden'
p2323
aS'seal'
p2324
aa(lp2325
g2322
ag2323
aS'team six'
p2326
aa(lp2327
g2322
ag2323
aS'us'
p2328
aa(lp2329
g2322
ag2323
aS'navy'
p2330
aa(lp2331
g2322
aS'Laden'
p2332
ag2324
aa(lp2333
g2322
ag2332
ag2326
aa(lp2334
g2322
ag2332
ag2328
aa(lp2335
g2322
ag2332
ag2330
aa(lp2336
S'9/11'
p2337
ag2323
ag2324
aa(lp2338
g2337
ag2323
ag2326
aa(lp2339
g2337
ag2323
ag2328
aa(lp2340
g2337
ag2323
ag2330
aa(lp2341
g2337
ag2332
ag2324
aa(lp2342
g2337
ag2332
ag2326
aa(lp2343
g2337
ag2332
ag2328
aa(lp2344
g2337
ag2332
ag2330
aa(lp2345
S'September 11 attacks'
p2346
ag2323
ag2324
aa(lp2347
g2346
ag2323
ag2326
aa(lp2348
g2346
ag2323
ag2328
aa(lp2349
g2346
ag2323
ag2330
aa(lp2350
g2346
ag2332
ag2324
aa(lp2351
g2346
ag2332
ag2326
aa(lp2352
g2346
ag2332
ag2328
aa(lp2353
g2346
ag2332
ag2330
aa(lp2354
S'Laden'
p2355
aS'911'
p2356
aS'economic'
p2357
aa(lp2358
g2355
ag2356
aS'world market'
p2359
aa(lp2360
g2355
ag2356
aS'DJIA'
p2361
aa(lp2362
g2355
aS'9/11'
p2363
ag2357
aa(lp2364
g2355
ag2363
ag2359
aa(lp2365
g2355
ag2363
ag2361
aa(lp2366
g2355
aS'September 11 attacks'
p2367
ag2357
aa(lp2368
g2355
ag2367
ag2359
aa(lp2369
g2355
ag2367
ag2361
aa(lp2370
S'Al-qaeda'
p2371
ag2356
ag2357
aa(lp2372
g2371
ag2356
ag2359
aa(lp2373
g2371
ag2356
ag2361
aa(lp2374
g2371
ag2363
ag2357
aa(lp2375
g2371
ag2363
ag2359
aa(lp2376
g2371
ag2363
ag2361
aa(lp2377
g2371
ag2367
ag2357
aa(lp2378
g2371
ag2367
ag2359
aa(lp2379
g2371
ag2367
ag2361
aa(lp2380
S'Laden'
p2381
aS'911'
p2382
aS'afghanistan'
p2383
aa(lp2384
g2381
ag2382
aS'iraq'
p2385
aa(lp2386
g2381
ag2382
aS'war'
p2387
aa(lp2388
g2381
aS'9/11'
p2389
ag2383
aa(lp2390
g2381
ag2389
ag2385
aa(lp2391
g2381
ag2389
ag2387
aa(lp2392
g2381
aS'September 11 attacks'
p2393
ag2383
aa(lp2394
g2381
ag2393
ag2385
aa(lp2395
g2381
ag2393
ag2387
aa(lp2396
S'Al-qaeda'
p2397
ag2382
ag2383
aa(lp2398
g2397
ag2382
ag2385
aa(lp2399
g2397
ag2382
ag2387
aa(lp2400
g2397
ag2389
ag2383
aa(lp2401
g2397
ag2389
ag2385
aa(lp2402
g2397
ag2389
ag2387
aa(lp2403
g2397
ag2393
ag2383
aa(lp2404
g2397
ag2393
ag2385
aa(lp2405
g2397
ag2393
ag2387
aasS'baltimore'
p2406
(lp2407
(lp2408
S'Lieutenant'
p2409
aS'death'
p2410
aS'baltimore'
p2411
aS'acquitted'
p2412
aa(lp2413
g2409
ag2410
ag2411
aS'acquittals'
p2414
aa(lp2415
g2409
ag2410
aS'maryland'
p2416
ag2412
aa(lp2417
g2409
ag2410
ag2416
ag2414
aa(lp2418
g2409
aS'homicide'
p2419
ag2411
ag2412
aa(lp2420
g2409
ag2419
ag2411
ag2414
aa(lp2421
g2409
ag2419
ag2416
ag2412
aa(lp2422
g2409
ag2419
ag2416
ag2414
aa(lp2423
g2409
aS'Freddie'
p2424
ag2411
ag2412
aa(lp2425
g2409
ag2424
ag2411
ag2414
aa(lp2426
g2409
ag2424
ag2416
ag2412
aa(lp2427
g2409
ag2424
ag2416
ag2414
aa(lp2428
g2409
aS'Carlos'
p2429
ag2411
ag2412
aa(lp2430
g2409
ag2429
ag2411
ag2414
aa(lp2431
g2409
ag2429
ag2416
ag2412
aa(lp2432
g2409
ag2429
ag2416
ag2414
aa(lp2433
g2409
aS'Gray'
p2434
ag2411
ag2412
aa(lp2435
g2409
ag2434
ag2411
ag2414
aa(lp2436
g2409
ag2434
ag2416
ag2412
aa(lp2437
g2409
ag2434
ag2416
ag2414
aa(lp2438
S'BrianRice'
p2439
ag2410
ag2411
ag2412
aa(lp2440
g2439
ag2410
ag2411
ag2414
aa(lp2441
g2439
ag2410
ag2416
ag2412
aa(lp2442
g2439
ag2410
ag2416
ag2414
aa(lp2443
g2439
ag2419
ag2411
ag2412
aa(lp2444
g2439
ag2419
ag2411
ag2414
aa(lp2445
g2439
ag2419
ag2416
ag2412
aa(lp2446
g2439
ag2419
ag2416
ag2414
aa(lp2447
g2439
ag2424
ag2411
ag2412
aa(lp2448
g2439
ag2424
ag2411
ag2414
aa(lp2449
g2439
ag2424
ag2416
ag2412
aa(lp2450
g2439
ag2424
ag2416
ag2414
aa(lp2451
g2439
ag2429
ag2411
ag2412
aa(lp2452
g2439
ag2429
ag2411
ag2414
aa(lp2453
g2439
ag2429
ag2416
ag2412
aa(lp2454
g2439
ag2429
ag2416
ag2414
aa(lp2455
g2439
ag2434
ag2411
ag2412
aa(lp2456
g2439
ag2434
ag2411
ag2414
aa(lp2457
g2439
ag2434
ag2416
ag2412
aa(lp2458
g2439
ag2434
ag2416
ag2414
aa(lp2459
S'Sergeant'
p2460
ag2410
ag2411
ag2412
aa(lp2461
g2460
ag2410
ag2411
ag2414
aa(lp2462
g2460
ag2410
ag2416
ag2412
aa(lp2463
g2460
ag2410
ag2416
ag2414
aa(lp2464
g2460
ag2419
ag2411
ag2412
aa(lp2465
g2460
ag2419
ag2411
ag2414
aa(lp2466
g2460
ag2419
ag2416
ag2412
aa(lp2467
g2460
ag2419
ag2416
ag2414
aa(lp2468
g2460
ag2424
ag2411
ag2412
aa(lp2469
g2460
ag2424
ag2411
ag2414
aa(lp2470
g2460
ag2424
ag2416
ag2412
aa(lp2471
g2460
ag2424
ag2416
ag2414
aa(lp2472
g2460
ag2429
ag2411
ag2412
aa(lp2473
g2460
ag2429
ag2411
ag2414
aa(lp2474
g2460
ag2429
ag2416
ag2412
aa(lp2475
g2460
ag2429
ag2416
ag2414
aa(lp2476
g2460
ag2434
ag2411
ag2412
aa(lp2477
g2460
ag2434
ag2411
ag2414
aa(lp2478
g2460
ag2434
ag2416
ag2412
aa(lp2479
g2460
ag2434
ag2416
ag2414
aa(lp2480
S'Alicia'
p2481
ag2410
ag2411
ag2412
aa(lp2482
g2481
ag2410
ag2411
ag2414
aa(lp2483
g2481
ag2410
ag2416
ag2412
aa(lp2484
g2481
ag2410
ag2416
ag2414
aa(lp2485
g2481
ag2419
ag2411
ag2412
aa(lp2486
g2481
ag2419
ag2411
ag2414
aa(lp2487
g2481
ag2419
ag2416
ag2412
aa(lp2488
g2481
ag2419
ag2416
ag2414
aa(lp2489
g2481
ag2424
ag2411
ag2412
aa(lp2490
g2481
ag2424
ag2411
ag2414
aa(lp2491
g2481
ag2424
ag2416
ag2412
aa(lp2492
g2481
ag2424
ag2416
ag2414
aa(lp2493
g2481
ag2429
ag2411
ag2412
aa(lp2494
g2481
ag2429
ag2411
ag2414
aa(lp2495
g2481
ag2429
ag2416
ag2412
aa(lp2496
g2481
ag2429
ag2416
ag2414
aa(lp2497
g2481
ag2434
ag2411
ag2412
aa(lp2498
g2481
ag2434
ag2411
ag2414
aa(lp2499
g2481
ag2434
ag2416
ag2412
aa(lp2500
g2481
ag2434
ag2416
ag2414
aa(lp2501
S'White'
p2502
ag2410
ag2411
ag2412
aa(lp2503
g2502
ag2410
ag2411
ag2414
aa(lp2504
g2502
ag2410
ag2416
ag2412
aa(lp2505
g2502
ag2410
ag2416
ag2414
aa(lp2506
g2502
ag2419
ag2411
ag2412
aa(lp2507
g2502
ag2419
ag2411
ag2414
aa(lp2508
g2502
ag2419
ag2416
ag2412
aa(lp2509
g2502
ag2419
ag2416
ag2414
aa(lp2510
g2502
ag2424
ag2411
ag2412
aa(lp2511
g2502
ag2424
ag2411
ag2414
aa(lp2512
g2502
ag2424
ag2416
ag2412
aa(lp2513
g2502
ag2424
ag2416
ag2414
aa(lp2514
g2502
ag2429
ag2411
ag2412
aa(lp2515
g2502
ag2429
ag2411
ag2414
aa(lp2516
g2502
ag2429
ag2416
ag2412
aa(lp2517
g2502
ag2429
ag2416
ag2414
aa(lp2518
g2502
ag2434
ag2411
ag2412
aa(lp2519
g2502
ag2434
ag2411
ag2414
aa(lp2520
g2502
ag2434
ag2416
ag2412
aa(lp2521
g2502
ag2434
ag2416
ag2414
aa(lp2522
S'William'
p2523
ag2410
ag2411
ag2412
aa(lp2524
g2523
ag2410
ag2411
ag2414
aa(lp2525
g2523
ag2410
ag2416
ag2412
aa(lp2526
g2523
ag2410
ag2416
ag2414
aa(lp2527
g2523
ag2419
ag2411
ag2412
aa(lp2528
g2523
ag2419
ag2411
ag2414
aa(lp2529
g2523
ag2419
ag2416
ag2412
aa(lp2530
g2523
ag2419
ag2416
ag2414
aa(lp2531
g2523
ag2424
ag2411
ag2412
aa(lp2532
g2523
ag2424
ag2411
ag2414
aa(lp2533
g2523
ag2424
ag2416
ag2412
aa(lp2534
g2523
ag2424
ag2416
ag2414
aa(lp2535
g2523
ag2429
ag2411
ag2412
aa(lp2536
g2523
ag2429
ag2411
ag2414
aa(lp2537
g2523
ag2429
ag2416
ag2412
aa(lp2538
g2523
ag2429
ag2416
ag2414
aa(lp2539
g2523
ag2434
ag2411
ag2412
aa(lp2540
g2523
ag2434
ag2411
ag2414
aa(lp2541
g2523
ag2434
ag2416
ag2412
aa(lp2542
g2523
ag2434
ag2416
ag2414
aa(lp2543
S'Porter'
p2544
ag2410
ag2411
ag2412
aa(lp2545
g2544
ag2410
ag2411
ag2414
aa(lp2546
g2544
ag2410
ag2416
ag2412
aa(lp2547
g2544
ag2410
ag2416
ag2414
aa(lp2548
g2544
ag2419
ag2411
ag2412
aa(lp2549
g2544
ag2419
ag2411
ag2414
aa(lp2550
g2544
ag2419
ag2416
ag2412
aa(lp2551
g2544
ag2419
ag2416
ag2414
aa(lp2552
g2544
ag2424
ag2411
ag2412
aa(lp2553
g2544
ag2424
ag2411
ag2414
aa(lp2554
g2544
ag2424
ag2416
ag2412
aa(lp2555
g2544
ag2424
ag2416
ag2414
aa(lp2556
g2544
ag2429
ag2411
ag2412
aa(lp2557
g2544
ag2429
ag2411
ag2414
aa(lp2558
g2544
ag2429
ag2416
ag2412
aa(lp2559
g2544
ag2429
ag2416
ag2414
aa(lp2560
g2544
ag2434
ag2411
ag2412
aa(lp2561
g2544
ag2434
ag2411
ag2414
aa(lp2562
g2544
ag2434
ag2416
ag2412
aa(lp2563
g2544
ag2434
ag2416
ag2414
aa(lp2564
S'Garrett'
p2565
ag2410
ag2411
ag2412
aa(lp2566
g2565
ag2410
ag2411
ag2414
aa(lp2567
g2565
ag2410
ag2416
ag2412
aa(lp2568
g2565
ag2410
ag2416
ag2414
aa(lp2569
g2565
ag2419
ag2411
ag2412
aa(lp2570
g2565
ag2419
ag2411
ag2414
aa(lp2571
g2565
ag2419
ag2416
ag2412
aa(lp2572
g2565
ag2419
ag2416
ag2414
aa(lp2573
g2565
ag2424
ag2411
ag2412
aa(lp2574
g2565
ag2424
ag2411
ag2414
aa(lp2575
g2565
ag2424
ag2416
ag2412
aa(lp2576
g2565
ag2424
ag2416
ag2414
aa(lp2577
g2565
ag2429
ag2411
ag2412
aa(lp2578
g2565
ag2429
ag2411
ag2414
aa(lp2579
g2565
ag2429
ag2416
ag2412
aa(lp2580
g2565
ag2429
ag2416
ag2414
aa(lp2581
g2565
ag2434
ag2411
ag2412
aa(lp2582
g2565
ag2434
ag2411
ag2414
aa(lp2583
g2565
ag2434
ag2416
ag2412
aa(lp2584
g2565
ag2434
ag2416
ag2414
aa(lp2585
S'Miller'
p2586
ag2410
ag2411
ag2412
aa(lp2587
g2586
ag2410
ag2411
ag2414
aa(lp2588
g2586
ag2410
ag2416
ag2412
aa(lp2589
g2586
ag2410
ag2416
ag2414
aa(lp2590
g2586
ag2419
ag2411
ag2412
aa(lp2591
g2586
ag2419
ag2411
ag2414
aa(lp2592
g2586
ag2419
ag2416
ag2412
aa(lp2593
g2586
ag2419
ag2416
ag2414
aa(lp2594
g2586
ag2424
ag2411
ag2412
aa(lp2595
g2586
ag2424
ag2411
ag2414
aa(lp2596
g2586
ag2424
ag2416
ag2412
aa(lp2597
g2586
ag2424
ag2416
ag2414
aa(lp2598
g2586
ag2429
ag2411
ag2412
aa(lp2599
g2586
ag2429
ag2411
ag2414
aa(lp2600
g2586
ag2429
ag2416
ag2412
aa(lp2601
g2586
ag2429
ag2416
ag2414
aa(lp2602
g2586
ag2434
ag2411
ag2412
aa(lp2603
g2586
ag2434
ag2411
ag2414
aa(lp2604
g2586
ag2434
ag2416
ag2412
aa(lp2605
g2586
ag2434
ag2416
ag2414
aa(lp2606
S'Edward'
p2607
ag2410
ag2411
ag2412
aa(lp2608
g2607
ag2410
ag2411
ag2414
aa(lp2609
g2607
ag2410
ag2416
ag2412
aa(lp2610
g2607
ag2410
ag2416
ag2414
aa(lp2611
g2607
ag2419
ag2411
ag2412
aa(lp2612
g2607
ag2419
ag2411
ag2414
aa(lp2613
g2607
ag2419
ag2416
ag2412
aa(lp2614
g2607
ag2419
ag2416
ag2414
aa(lp2615
g2607
ag2424
ag2411
ag2412
aa(lp2616
g2607
ag2424
ag2411
ag2414
aa(lp2617
g2607
ag2424
ag2416
ag2412
aa(lp2618
g2607
ag2424
ag2416
ag2414
aa(lp2619
g2607
ag2429
ag2411
ag2412
aa(lp2620
g2607
ag2429
ag2411
ag2414
aa(lp2621
g2607
ag2429
ag2416
ag2412
aa(lp2622
g2607
ag2429
ag2416
ag2414
aa(lp2623
g2607
ag2434
ag2411
ag2412
aa(lp2624
g2607
ag2434
ag2411
ag2414
aa(lp2625
g2607
ag2434
ag2416
ag2412
aa(lp2626
g2607
ag2434
ag2416
ag2414
aa(lp2627
S'Nero'
p2628
ag2410
ag2411
ag2412
aa(lp2629
g2628
ag2410
ag2411
ag2414
aa(lp2630
g2628
ag2410
ag2416
ag2412
aa(lp2631
g2628
ag2410
ag2416
ag2414
aa(lp2632
g2628
ag2419
ag2411
ag2412
aa(lp2633
g2628
ag2419
ag2411
ag2414
aa(lp2634
g2628
ag2419
ag2416
ag2412
aa(lp2635
g2628
ag2419
ag2416
ag2414
aa(lp2636
g2628
ag2424
ag2411
ag2412
aa(lp2637
g2628
ag2424
ag2411
ag2414
aa(lp2638
g2628
ag2424
ag2416
ag2412
aa(lp2639
g2628
ag2424
ag2416
ag2414
aa(lp2640
g2628
ag2429
ag2411
ag2412
aa(lp2641
g2628
ag2429
ag2411
ag2414
aa(lp2642
g2628
ag2429
ag2416
ag2412
aa(lp2643
g2628
ag2429
ag2416
ag2414
aa(lp2644
g2628
ag2434
ag2411
ag2412
aa(lp2645
g2628
ag2434
ag2411
ag2414
aa(lp2646
g2628
ag2434
ag2416
ag2412
aa(lp2647
g2628
ag2434
ag2416
ag2414
aa(lp2648
S'Caesar'
p2649
ag2410
ag2411
ag2412
aa(lp2650
g2649
ag2410
ag2411
ag2414
aa(lp2651
g2649
ag2410
ag2416
ag2412
aa(lp2652
g2649
ag2410
ag2416
ag2414
aa(lp2653
g2649
ag2419
ag2411
ag2412
aa(lp2654
g2649
ag2419
ag2411
ag2414
aa(lp2655
g2649
ag2419
ag2416
ag2412
aa(lp2656
g2649
ag2419
ag2416
ag2414
aa(lp2657
g2649
ag2424
ag2411
ag2412
aa(lp2658
g2649
ag2424
ag2411
ag2414
aa(lp2659
g2649
ag2424
ag2416
ag2412
aa(lp2660
g2649
ag2424
ag2416
ag2414
aa(lp2661
g2649
ag2429
ag2411
ag2412
aa(lp2662
g2649
ag2429
ag2411
ag2414
aa(lp2663
g2649
ag2429
ag2416
ag2412
aa(lp2664
g2649
ag2429
ag2416
ag2414
aa(lp2665
g2649
ag2434
ag2411
ag2412
aa(lp2666
g2649
ag2434
ag2411
ag2414
aa(lp2667
g2649
ag2434
ag2416
ag2412
aa(lp2668
g2649
ag2434
ag2416
ag2414
aa(lp2669
S'Goodson'
p2670
ag2410
ag2411
ag2412
aa(lp2671
g2670
ag2410
ag2411
ag2414
aa(lp2672
g2670
ag2410
ag2416
ag2412
aa(lp2673
g2670
ag2410
ag2416
ag2414
aa(lp2674
g2670
ag2419
ag2411
ag2412
aa(lp2675
g2670
ag2419
ag2411
ag2414
aa(lp2676
g2670
ag2419
ag2416
ag2412
aa(lp2677
g2670
ag2419
ag2416
ag2414
aa(lp2678
g2670
ag2424
ag2411
ag2412
aa(lp2679
g2670
ag2424
ag2411
ag2414
aa(lp2680
g2670
ag2424
ag2416
ag2412
aa(lp2681
g2670
ag2424
ag2416
ag2414
aa(lp2682
g2670
ag2429
ag2411
ag2412
aa(lp2683
g2670
ag2429
ag2411
ag2414
aa(lp2684
g2670
ag2429
ag2416
ag2412
aa(lp2685
g2670
ag2429
ag2416
ag2414
aa(lp2686
g2670
ag2434
ag2411
ag2412
aa(lp2687
g2670
ag2434
ag2411
ag2414
aa(lp2688
g2670
ag2434
ag2416
ag2412
aa(lp2689
g2670
ag2434
ag2416
ag2414
aas.