(dp1
S'paris'
p2
(lp3
(lp4
S'Operation'
p5
aS'Syria'
p6
aS'Islamic State'
p7
aS'Paris'
p8
aa(lp9
g5
ag6
ag7
aS'Saint-Denis'
p10
aa(lp11
g5
ag6
ag7
aS'Stade'
p12
aa(lp13
g5
ag6
ag7
aS'Bichat'
p14
aa(lp15
g5
ag6
ag7
aS'Charonne'
p16
aa(lp17
g5
ag6
ag7
aS'Voltaire'
p18
aa(lp19
g5
ag6
ag7
aS'Alibert'
p20
aa(lp21
g5
ag6
ag7
aS'Bataclan'
p22
aa(lp23
g5
ag6
ag7
aS'theatre'
p24
aa(lp25
g5
ag6
aS'ISIL'
p26
ag8
aa(lp27
g5
ag6
ag26
ag10
aa(lp28
g5
ag6
ag26
ag12
aa(lp29
g5
ag6
ag26
ag14
aa(lp30
g5
ag6
ag26
ag16
aa(lp31
g5
ag6
ag26
ag18
aa(lp32
g5
ag6
ag26
ag20
aa(lp33
g5
ag6
ag26
ag22
aa(lp34
g5
ag6
ag26
ag24
aa(lp35
g5
ag6
aS'Abdelhamid'
p36
ag8
aa(lp37
g5
ag6
ag36
ag10
aa(lp38
g5
ag6
ag36
ag12
aa(lp39
g5
ag6
ag36
ag14
aa(lp40
g5
ag6
ag36
ag16
aa(lp41
g5
ag6
ag36
ag18
aa(lp42
g5
ag6
ag36
ag20
aa(lp43
g5
ag6
ag36
ag22
aa(lp44
g5
ag6
ag36
ag24
aa(lp45
g5
ag6
aS'Abaaoud'
p46
ag8
aa(lp47
g5
ag6
ag46
ag10
aa(lp48
g5
ag6
ag46
ag12
aa(lp49
g5
ag6
ag46
ag14
aa(lp50
g5
ag6
ag46
ag16
aa(lp51
g5
ag6
ag46
ag18
aa(lp52
g5
ag6
ag46
ag20
aa(lp53
g5
ag6
ag46
ag22
aa(lp54
g5
ag6
ag46
ag24
aa(lp55
g5
aS'Iraq'
p56
ag7
ag8
aa(lp57
g5
ag56
ag7
ag10
aa(lp58
g5
ag56
ag7
ag12
aa(lp59
g5
ag56
ag7
ag14
aa(lp60
g5
ag56
ag7
ag16
aa(lp61
g5
ag56
ag7
ag18
aa(lp62
g5
ag56
ag7
ag20
aa(lp63
g5
ag56
ag7
ag22
aa(lp64
g5
ag56
ag7
ag24
aa(lp65
g5
ag56
ag26
ag8
aa(lp66
g5
ag56
ag26
ag10
aa(lp67
g5
ag56
ag26
ag12
aa(lp68
g5
ag56
ag26
ag14
aa(lp69
g5
ag56
ag26
ag16
aa(lp70
g5
ag56
ag26
ag18
aa(lp71
g5
ag56
ag26
ag20
aa(lp72
g5
ag56
ag26
ag22
aa(lp73
g5
ag56
ag26
ag24
aa(lp74
g5
ag56
ag36
ag8
aa(lp75
g5
ag56
ag36
ag10
aa(lp76
g5
ag56
ag36
ag12
aa(lp77
g5
ag56
ag36
ag14
aa(lp78
g5
ag56
ag36
ag16
aa(lp79
g5
ag56
ag36
ag18
aa(lp80
g5
ag56
ag36
ag20
aa(lp81
g5
ag56
ag36
ag22
aa(lp82
g5
ag56
ag36
ag24
aa(lp83
g5
ag56
ag46
ag8
aa(lp84
g5
ag56
ag46
ag10
aa(lp85
g5
ag56
ag46
ag12
aa(lp86
g5
ag56
ag46
ag14
aa(lp87
g5
ag56
ag46
ag16
aa(lp88
g5
ag56
ag46
ag18
aa(lp89
g5
ag56
ag46
ag20
aa(lp90
g5
ag56
ag46
ag22
aa(lp91
g5
ag56
ag46
ag24
aa(lp92
S'Chammal'
p93
ag6
ag7
ag8
aa(lp94
g93
ag6
ag7
ag10
aa(lp95
g93
ag6
ag7
ag12
aa(lp96
g93
ag6
ag7
ag14
aa(lp97
g93
ag6
ag7
ag16
aa(lp98
g93
ag6
ag7
ag18
aa(lp99
g93
ag6
ag7
ag20
aa(lp100
g93
ag6
ag7
ag22
aa(lp101
g93
ag6
ag7
ag24
aa(lp102
g93
ag6
ag26
ag8
aa(lp103
g93
ag6
ag26
ag10
aa(lp104
g93
ag6
ag26
ag12
aa(lp105
g93
ag6
ag26
ag14
aa(lp106
g93
ag6
ag26
ag16
aa(lp107
g93
ag6
ag26
ag18
aa(lp108
g93
ag6
ag26
ag20
aa(lp109
g93
ag6
ag26
ag22
aa(lp110
g93
ag6
ag26
ag24
aa(lp111
g93
ag6
ag36
ag8
aa(lp112
g93
ag6
ag36
ag10
aa(lp113
g93
ag6
ag36
ag12
aa(lp114
g93
ag6
ag36
ag14
aa(lp115
g93
ag6
ag36
ag16
aa(lp116
g93
ag6
ag36
ag18
aa(lp117
g93
ag6
ag36
ag20
aa(lp118
g93
ag6
ag36
ag22
aa(lp119
g93
ag6
ag36
ag24
aa(lp120
g93
ag6
ag46
ag8
aa(lp121
g93
ag6
ag46
ag10
aa(lp122
g93
ag6
ag46
ag12
aa(lp123
g93
ag6
ag46
ag14
aa(lp124
g93
ag6
ag46
ag16
aa(lp125
g93
ag6
ag46
ag18
aa(lp126
g93
ag6
ag46
ag20
aa(lp127
g93
ag6
ag46
ag22
aa(lp128
g93
ag6
ag46
ag24
aa(lp129
g93
ag56
ag7
ag8
aa(lp130
g93
ag56
ag7
ag10
aa(lp131
g93
ag56
ag7
ag12
aa(lp132
g93
ag56
ag7
ag14
aa(lp133
g93
ag56
ag7
ag16
aa(lp134
g93
ag56
ag7
ag18
aa(lp135
g93
ag56
ag7
ag20
aa(lp136
g93
ag56
ag7
ag22
aa(lp137
g93
ag56
ag7
ag24
aa(lp138
g93
ag56
ag26
ag8
aa(lp139
g93
ag56
ag26
ag10
aa(lp140
g93
ag56
ag26
ag12
aa(lp141
g93
ag56
ag26
ag14
aa(lp142
g93
ag56
ag26
ag16
aa(lp143
g93
ag56
ag26
ag18
aa(lp144
g93
ag56
ag26
ag20
aa(lp145
g93
ag56
ag26
ag22
aa(lp146
g93
ag56
ag26
ag24
aa(lp147
g93
ag56
ag36
ag8
aa(lp148
g93
ag56
ag36
ag10
aa(lp149
g93
ag56
ag36
ag12
aa(lp150
g93
ag56
ag36
ag14
aa(lp151
g93
ag56
ag36
ag16
aa(lp152
g93
ag56
ag36
ag18
aa(lp153
g93
ag56
ag36
ag20
aa(lp154
g93
ag56
ag36
ag22
aa(lp155
g93
ag56
ag36
ag24
aa(lp156
g93
ag56
ag46
ag8
aa(lp157
g93
ag56
ag46
ag10
aa(lp158
g93
ag56
ag46
ag12
aa(lp159
g93
ag56
ag46
ag14
aa(lp160
g93
ag56
ag46
ag16
aa(lp161
g93
ag56
ag46
ag18
aa(lp162
g93
ag56
ag46
ag20
aa(lp163
g93
ag56
ag46
ag22
aa(lp164
g93
ag56
ag46
ag24
aasS'charlie'
p165
(lp166
(lp167
S'satirical'
p168
aS'Al-Qaeda'
p169
aS'Charlie'
p170
aS'Vigipirate'
p171
aa(lp172
g168
ag169
ag170
aS'jesuischarlie'
p173
aa(lp174
g168
ag169
ag170
aS'#JeSuisCharlie'
p175
aa(lp176
g168
ag169
ag170
aS'R\xc3\xa9publique'
p177
aa(lp178
g168
ag169
aS'Hebdo'
p179
ag171
aa(lp180
g168
ag169
ag179
ag173
aa(lp181
g168
ag169
ag179
ag175
aa(lp182
g168
ag169
ag179
ag177
aa(lp183
g168
ag169
aS'Cabu'
p184
ag171
aa(lp185
g168
ag169
ag184
ag173
aa(lp186
g168
ag169
ag184
ag175
aa(lp187
g168
ag169
ag184
ag177
aa(lp188
g168
ag169
aS'Elsa'
p189
ag171
aa(lp190
g168
ag169
ag189
ag173
aa(lp191
g168
ag169
ag189
ag175
aa(lp192
g168
ag169
ag189
ag177
aa(lp193
g168
ag169
aS'Cayat'
p194
ag171
aa(lp195
g168
ag169
ag194
ag173
aa(lp196
g168
ag169
ag194
ag175
aa(lp197
g168
ag169
ag194
ag177
aa(lp198
g168
ag169
aS'Charb'
p199
ag171
aa(lp200
g168
ag169
ag199
ag173
aa(lp201
g168
ag169
ag199
ag175
aa(lp202
g168
ag169
ag199
ag177
aa(lp203
g168
ag169
aS'Wolinski'
p204
ag171
aa(lp205
g168
ag169
ag204
ag173
aa(lp206
g168
ag169
ag204
ag175
aa(lp207
g168
ag169
ag204
ag177
aa(lp208
g168
ag169
aS'Tignous'
p209
ag171
aa(lp210
g168
ag169
ag209
ag173
aa(lp211
g168
ag169
ag209
ag175
aa(lp212
g168
ag169
ag209
ag177
aa(lp213
g168
aS'AQAP'
p214
ag170
ag171
aa(lp215
g168
ag214
ag170
ag173
aa(lp216
g168
ag214
ag170
ag175
aa(lp217
g168
ag214
ag170
ag177
aa(lp218
g168
ag214
ag179
ag171
aa(lp219
g168
ag214
ag179
ag173
aa(lp220
g168
ag214
ag179
ag175
aa(lp221
g168
ag214
ag179
ag177
aa(lp222
g168
ag214
ag184
ag171
aa(lp223
g168
ag214
ag184
ag173
aa(lp224
g168
ag214
ag184
ag175
aa(lp225
g168
ag214
ag184
ag177
aa(lp226
g168
ag214
ag189
ag171
aa(lp227
g168
ag214
ag189
ag173
aa(lp228
g168
ag214
ag189
ag175
aa(lp229
g168
ag214
ag189
ag177
aa(lp230
g168
ag214
ag194
ag171
aa(lp231
g168
ag214
ag194
ag173
aa(lp232
g168
ag214
ag194
ag175
aa(lp233
g168
ag214
ag194
ag177
aa(lp234
g168
ag214
ag199
ag171
aa(lp235
g168
ag214
ag199
ag173
aa(lp236
g168
ag214
ag199
ag175
aa(lp237
g168
ag214
ag199
ag177
aa(lp238
g168
ag214
ag204
ag171
aa(lp239
g168
ag214
ag204
ag173
aa(lp240
g168
ag214
ag204
ag175
aa(lp241
g168
ag214
ag204
ag177
aa(lp242
g168
ag214
ag209
ag171
aa(lp243
g168
ag214
ag209
ag173
aa(lp244
g168
ag214
ag209
ag175
aa(lp245
g168
ag214
ag209
ag177
aa(lp246
g168
aS'Sa\xc3\xafd'
p247
ag170
ag171
aa(lp248
g168
ag247
ag170
ag173
aa(lp249
g168
ag247
ag170
ag175
aa(lp250
g168
ag247
ag170
ag177
aa(lp251
g168
ag247
ag179
ag171
aa(lp252
g168
ag247
ag179
ag173
aa(lp253
g168
ag247
ag179
ag175
aa(lp254
g168
ag247
ag179
ag177
aa(lp255
g168
ag247
ag184
ag171
aa(lp256
g168
ag247
ag184
ag173
aa(lp257
g168
ag247
ag184
ag175
aa(lp258
g168
ag247
ag184
ag177
aa(lp259
g168
ag247
ag189
ag171
aa(lp260
g168
ag247
ag189
ag173
aa(lp261
g168
ag247
ag189
ag175
aa(lp262
g168
ag247
ag189
ag177
aa(lp263
g168
ag247
ag194
ag171
aa(lp264
g168
ag247
ag194
ag173
aa(lp265
g168
ag247
ag194
ag175
aa(lp266
g168
ag247
ag194
ag177
aa(lp267
g168
ag247
ag199
ag171
aa(lp268
g168
ag247
ag199
ag173
aa(lp269
g168
ag247
ag199
ag175
aa(lp270
g168
ag247
ag199
ag177
aa(lp271
g168
ag247
ag204
ag171
aa(lp272
g168
ag247
ag204
ag173
aa(lp273
g168
ag247
ag204
ag175
aa(lp274
g168
ag247
ag204
ag177
aa(lp275
g168
ag247
ag209
ag171
aa(lp276
g168
ag247
ag209
ag173
aa(lp277
g168
ag247
ag209
ag175
aa(lp278
g168
ag247
ag209
ag177
aa(lp279
g168
aS'Said'
p280
ag170
ag171
aa(lp281
g168
ag280
ag170
ag173
aa(lp282
g168
ag280
ag170
ag175
aa(lp283
g168
ag280
ag170
ag177
aa(lp284
g168
ag280
ag179
ag171
aa(lp285
g168
ag280
ag179
ag173
aa(lp286
g168
ag280
ag179
ag175
aa(lp287
g168
ag280
ag179
ag177
aa(lp288
g168
ag280
ag184
ag171
aa(lp289
g168
ag280
ag184
ag173
aa(lp290
g168
ag280
ag184
ag175
aa(lp291
g168
ag280
ag184
ag177
aa(lp292
g168
ag280
ag189
ag171
aa(lp293
g168
ag280
ag189
ag173
aa(lp294
g168
ag280
ag189
ag175
aa(lp295
g168
ag280
ag189
ag177
aa(lp296
g168
ag280
ag194
ag171
aa(lp297
g168
ag280
ag194
ag173
aa(lp298
g168
ag280
ag194
ag175
aa(lp299
g168
ag280
ag194
ag177
aa(lp300
g168
ag280
ag199
ag171
aa(lp301
g168
ag280
ag199
ag173
aa(lp302
g168
ag280
ag199
ag175
aa(lp303
g168
ag280
ag199
ag177
aa(lp304
g168
ag280
ag204
ag171
aa(lp305
g168
ag280
ag204
ag173
aa(lp306
g168
ag280
ag204
ag175
aa(lp307
g168
ag280
ag204
ag177
aa(lp308
g168
ag280
ag209
ag171
aa(lp309
g168
ag280
ag209
ag173
aa(lp310
g168
ag280
ag209
ag175
aa(lp311
g168
ag280
ag209
ag177
aa(lp312
g168
aS'Cherif'
p313
ag170
ag171
aa(lp314
g168
ag313
ag170
ag173
aa(lp315
g168
ag313
ag170
ag175
aa(lp316
g168
ag313
ag170
ag177
aa(lp317
g168
ag313
ag179
ag171
aa(lp318
g168
ag313
ag179
ag173
aa(lp319
g168
ag313
ag179
ag175
aa(lp320
g168
ag313
ag179
ag177
aa(lp321
g168
ag313
ag184
ag171
aa(lp322
g168
ag313
ag184
ag173
aa(lp323
g168
ag313
ag184
ag175
aa(lp324
g168
ag313
ag184
ag177
aa(lp325
g168
ag313
ag189
ag171
aa(lp326
g168
ag313
ag189
ag173
aa(lp327
g168
ag313
ag189
ag175
aa(lp328
g168
ag313
ag189
ag177
aa(lp329
g168
ag313
ag194
ag171
aa(lp330
g168
ag313
ag194
ag173
aa(lp331
g168
ag313
ag194
ag175
aa(lp332
g168
ag313
ag194
ag177
aa(lp333
g168
ag313
ag199
ag171
aa(lp334
g168
ag313
ag199
ag173
aa(lp335
g168
ag313
ag199
ag175
aa(lp336
g168
ag313
ag199
ag177
aa(lp337
g168
ag313
ag204
ag171
aa(lp338
g168
ag313
ag204
ag173
aa(lp339
g168
ag313
ag204
ag175
aa(lp340
g168
ag313
ag204
ag177
aa(lp341
g168
ag313
ag209
ag171
aa(lp342
g168
ag313
ag209
ag173
aa(lp343
g168
ag313
ag209
ag175
aa(lp344
g168
ag313
ag209
ag177
aa(lp345
g168
aS'Ch\xc3\xa9rif'
p346
ag170
ag171
aa(lp347
g168
ag346
ag170
ag173
aa(lp348
g168
ag346
ag170
ag175
aa(lp349
g168
ag346
ag170
ag177
aa(lp350
g168
ag346
ag179
ag171
aa(lp351
g168
ag346
ag179
ag173
aa(lp352
g168
ag346
ag179
ag175
aa(lp353
g168
ag346
ag179
ag177
aa(lp354
g168
ag346
ag184
ag171
aa(lp355
g168
ag346
ag184
ag173
aa(lp356
g168
ag346
ag184
ag175
aa(lp357
g168
ag346
ag184
ag177
aa(lp358
g168
ag346
ag189
ag171
aa(lp359
g168
ag346
ag189
ag173
aa(lp360
g168
ag346
ag189
ag175
aa(lp361
g168
ag346
ag189
ag177
aa(lp362
g168
ag346
ag194
ag171
aa(lp363
g168
ag346
ag194
ag173
aa(lp364
g168
ag346
ag194
ag175
aa(lp365
g168
ag346
ag194
ag177
aa(lp366
g168
ag346
ag199
ag171
aa(lp367
g168
ag346
ag199
ag173
aa(lp368
g168
ag346
ag199
ag175
aa(lp369
g168
ag346
ag199
ag177
aa(lp370
g168
ag346
ag204
ag171
aa(lp371
g168
ag346
ag204
ag173
aa(lp372
g168
ag346
ag204
ag175
aa(lp373
g168
ag346
ag204
ag177
aa(lp374
g168
ag346
ag209
ag171
aa(lp375
g168
ag346
ag209
ag173
aa(lp376
g168
ag346
ag209
ag175
aa(lp377
g168
ag346
ag209
ag177
aa(lp378
g168
aS'Kouachi'
p379
ag170
ag171
aa(lp380
g168
ag379
ag170
ag173
aa(lp381
g168
ag379
ag170
ag175
aa(lp382
g168
ag379
ag170
ag177
aa(lp383
g168
ag379
ag179
ag171
aa(lp384
g168
ag379
ag179
ag173
aa(lp385
g168
ag379
ag179
ag175
aa(lp386
g168
ag379
ag179
ag177
aa(lp387
g168
ag379
ag184
ag171
aa(lp388
g168
ag379
ag184
ag173
aa(lp389
g168
ag379
ag184
ag175
aa(lp390
g168
ag379
ag184
ag177
aa(lp391
g168
ag379
ag189
ag171
aa(lp392
g168
ag379
ag189
ag173
aa(lp393
g168
ag379
ag189
ag175
aa(lp394
g168
ag379
ag189
ag177
aa(lp395
g168
ag379
ag194
ag171
aa(lp396
g168
ag379
ag194
ag173
aa(lp397
g168
ag379
ag194
ag175
aa(lp398
g168
ag379
ag194
ag177
aa(lp399
g168
ag379
ag199
ag171
aa(lp400
g168
ag379
ag199
ag173
aa(lp401
g168
ag379
ag199
ag175
aa(lp402
g168
ag379
ag199
ag177
aa(lp403
g168
ag379
ag204
ag171
aa(lp404
g168
ag379
ag204
ag173
aa(lp405
g168
ag379
ag204
ag175
aa(lp406
g168
ag379
ag204
ag177
aa(lp407
g168
ag379
ag209
ag171
aa(lp408
g168
ag379
ag209
ag173
aa(lp409
g168
ag379
ag209
ag175
aa(lp410
g168
ag379
ag209
ag177
aa(lp411
S'Muhammad'
p412
ag169
ag170
ag171
aa(lp413
g412
ag169
ag170
ag173
aa(lp414
g412
ag169
ag170
ag175
aa(lp415
g412
ag169
ag170
ag177
aa(lp416
g412
ag169
ag179
ag171
aa(lp417
g412
ag169
ag179
ag173
aa(lp418
g412
ag169
ag179
ag175
aa(lp419
g412
ag169
ag179
ag177
aa(lp420
g412
ag169
ag184
ag171
aa(lp421
g412
ag169
ag184
ag173
aa(lp422
g412
ag169
ag184
ag175
aa(lp423
g412
ag169
ag184
ag177
aa(lp424
g412
ag169
ag189
ag171
aa(lp425
g412
ag169
ag189
ag173
aa(lp426
g412
ag169
ag189
ag175
aa(lp427
g412
ag169
ag189
ag177
aa(lp428
g412
ag169
ag194
ag171
aa(lp429
g412
ag169
ag194
ag173
aa(lp430
g412
ag169
ag194
ag175
aa(lp431
g412
ag169
ag194
ag177
aa(lp432
g412
ag169
ag199
ag171
aa(lp433
g412
ag169
ag199
ag173
aa(lp434
g412
ag169
ag199
ag175
aa(lp435
g412
ag169
ag199
ag177
aa(lp436
g412
ag169
ag204
ag171
aa(lp437
g412
ag169
ag204
ag173
aa(lp438
g412
ag169
ag204
ag175
aa(lp439
g412
ag169
ag204
ag177
aa(lp440
g412
ag169
ag209
ag171
aa(lp441
g412
ag169
ag209
ag173
aa(lp442
g412
ag169
ag209
ag175
aa(lp443
g412
ag169
ag209
ag177
aa(lp444
g412
ag214
ag170
ag171
aa(lp445
g412
ag214
ag170
ag173
aa(lp446
g412
ag214
ag170
ag175
aa(lp447
g412
ag214
ag170
ag177
aa(lp448
g412
ag214
ag179
ag171
aa(lp449
g412
ag214
ag179
ag173
aa(lp450
g412
ag214
ag179
ag175
aa(lp451
g412
ag214
ag179
ag177
aa(lp452
g412
ag214
ag184
ag171
aa(lp453
g412
ag214
ag184
ag173
aa(lp454
g412
ag214
ag184
ag175
aa(lp455
g412
ag214
ag184
ag177
aa(lp456
g412
ag214
ag189
ag171
aa(lp457
g412
ag214
ag189
ag173
aa(lp458
g412
ag214
ag189
ag175
aa(lp459
g412
ag214
ag189
ag177
aa(lp460
g412
ag214
ag194
ag171
aa(lp461
g412
ag214
ag194
ag173
aa(lp462
g412
ag214
ag194
ag175
aa(lp463
g412
ag214
ag194
ag177
aa(lp464
g412
ag214
ag199
ag171
aa(lp465
g412
ag214
ag199
ag173
aa(lp466
g412
ag214
ag199
ag175
aa(lp467
g412
ag214
ag199
ag177
aa(lp468
g412
ag214
ag204
ag171
aa(lp469
g412
ag214
ag204
ag173
aa(lp470
g412
ag214
ag204
ag175
aa(lp471
g412
ag214
ag204
ag177
aa(lp472
g412
ag214
ag209
ag171
aa(lp473
g412
ag214
ag209
ag173
aa(lp474
g412
ag214
ag209
ag175
aa(lp475
g412
ag214
ag209
ag177
aa(lp476
g412
ag247
ag170
ag171
aa(lp477
g412
ag247
ag170
ag173
aa(lp478
g412
ag247
ag170
ag175
aa(lp479
g412
ag247
ag170
ag177
aa(lp480
g412
ag247
ag179
ag171
aa(lp481
g412
ag247
ag179
ag173
aa(lp482
g412
ag247
ag179
ag175
aa(lp483
g412
ag247
ag179
ag177
aa(lp484
g412
ag247
ag184
ag171
aa(lp485
g412
ag247
ag184
ag173
aa(lp486
g412
ag247
ag184
ag175
aa(lp487
g412
ag247
ag184
ag177
aa(lp488
g412
ag247
ag189
ag171
aa(lp489
g412
ag247
ag189
ag173
aa(lp490
g412
ag247
ag189
ag175
aa(lp491
g412
ag247
ag189
ag177
aa(lp492
g412
ag247
ag194
ag171
aa(lp493
g412
ag247
ag194
ag173
aa(lp494
g412
ag247
ag194
ag175
aa(lp495
g412
ag247
ag194
ag177
aa(lp496
g412
ag247
ag199
ag171
aa(lp497
g412
ag247
ag199
ag173
aa(lp498
g412
ag247
ag199
ag175
aa(lp499
g412
ag247
ag199
ag177
aa(lp500
g412
ag247
ag204
ag171
aa(lp501
g412
ag247
ag204
ag173
aa(lp502
g412
ag247
ag204
ag175
aa(lp503
g412
ag247
ag204
ag177
aa(lp504
g412
ag247
ag209
ag171
aa(lp505
g412
ag247
ag209
ag173
aa(lp506
g412
ag247
ag209
ag175
aa(lp507
g412
ag247
ag209
ag177
aa(lp508
g412
ag280
ag170
ag171
aa(lp509
g412
ag280
ag170
ag173
aa(lp510
g412
ag280
ag170
ag175
aa(lp511
g412
ag280
ag170
ag177
aa(lp512
g412
ag280
ag179
ag171
aa(lp513
g412
ag280
ag179
ag173
aa(lp514
g412
ag280
ag179
ag175
aa(lp515
g412
ag280
ag179
ag177
aa(lp516
g412
ag280
ag184
ag171
aa(lp517
g412
ag280
ag184
ag173
aa(lp518
g412
ag280
ag184
ag175
aa(lp519
g412
ag280
ag184
ag177
aa(lp520
g412
ag280
ag189
ag171
aa(lp521
g412
ag280
ag189
ag173
aa(lp522
g412
ag280
ag189
ag175
aa(lp523
g412
ag280
ag189
ag177
aa(lp524
g412
ag280
ag194
ag171
aa(lp525
g412
ag280
ag194
ag173
aa(lp526
g412
ag280
ag194
ag175
aa(lp527
g412
ag280
ag194
ag177
aa(lp528
g412
ag280
ag199
ag171
aa(lp529
g412
ag280
ag199
ag173
aa(lp530
g412
ag280
ag199
ag175
aa(lp531
g412
ag280
ag199
ag177
aa(lp532
g412
ag280
ag204
ag171
aa(lp533
g412
ag280
ag204
ag173
aa(lp534
g412
ag280
ag204
ag175
aa(lp535
g412
ag280
ag204
ag177
aa(lp536
g412
ag280
ag209
ag171
aa(lp537
g412
ag280
ag209
ag173
aa(lp538
g412
ag280
ag209
ag175
aa(lp539
g412
ag280
ag209
ag177
aa(lp540
g412
ag313
ag170
ag171
aa(lp541
g412
ag313
ag170
ag173
aa(lp542
g412
ag313
ag170
ag175
aa(lp543
g412
ag313
ag170
ag177
aa(lp544
g412
ag313
ag179
ag171
aa(lp545
g412
ag313
ag179
ag173
aa(lp546
g412
ag313
ag179
ag175
aa(lp547
g412
ag313
ag179
ag177
aa(lp548
g412
ag313
ag184
ag171
aa(lp549
g412
ag313
ag184
ag173
aa(lp550
g412
ag313
ag184
ag175
aa(lp551
g412
ag313
ag184
ag177
aa(lp552
g412
ag313
ag189
ag171
aa(lp553
g412
ag313
ag189
ag173
aa(lp554
g412
ag313
ag189
ag175
aa(lp555
g412
ag313
ag189
ag177
aa(lp556
g412
ag313
ag194
ag171
aa(lp557
g412
ag313
ag194
ag173
aa(lp558
g412
ag313
ag194
ag175
aa(lp559
g412
ag313
ag194
ag177
aa(lp560
g412
ag313
ag199
ag171
aa(lp561
g412
ag313
ag199
ag173
aa(lp562
g412
ag313
ag199
ag175
aa(lp563
g412
ag313
ag199
ag177
aa(lp564
g412
ag313
ag204
ag171
aa(lp565
g412
ag313
ag204
ag173
aa(lp566
g412
ag313
ag204
ag175
aa(lp567
g412
ag313
ag204
ag177
aa(lp568
g412
ag313
ag209
ag171
aa(lp569
g412
ag313
ag209
ag173
aa(lp570
g412
ag313
ag209
ag175
aa(lp571
g412
ag313
ag209
ag177
aa(lp572
g412
ag346
ag170
ag171
aa(lp573
g412
ag346
ag170
ag173
aa(lp574
g412
ag346
ag170
ag175
aa(lp575
g412
ag346
ag170
ag177
aa(lp576
g412
ag346
ag179
ag171
aa(lp577
g412
ag346
ag179
ag173
aa(lp578
g412
ag346
ag179
ag175
aa(lp579
g412
ag346
ag179
ag177
aa(lp580
g412
ag346
ag184
ag171
aa(lp581
g412
ag346
ag184
ag173
aa(lp582
g412
ag346
ag184
ag175
aa(lp583
g412
ag346
ag184
ag177
aa(lp584
g412
ag346
ag189
ag171
aa(lp585
g412
ag346
ag189
ag173
aa(lp586
g412
ag346
ag189
ag175
aa(lp587
g412
ag346
ag189
ag177
aa(lp588
g412
ag346
ag194
ag171
aa(lp589
g412
ag346
ag194
ag173
aa(lp590
g412
ag346
ag194
ag175
aa(lp591
g412
ag346
ag194
ag177
aa(lp592
g412
ag346
ag199
ag171
aa(lp593
g412
ag346
ag199
ag173
aa(lp594
g412
ag346
ag199
ag175
aa(lp595
g412
ag346
ag199
ag177
aa(lp596
g412
ag346
ag204
ag171
aa(lp597
g412
ag346
ag204
ag173
aa(lp598
g412
ag346
ag204
ag175
aa(lp599
g412
ag346
ag204
ag177
aa(lp600
g412
ag346
ag209
ag171
aa(lp601
g412
ag346
ag209
ag173
aa(lp602
g412
ag346
ag209
ag175
aa(lp603
g412
ag346
ag209
ag177
aa(lp604
g412
ag379
ag170
ag171
aa(lp605
g412
ag379
ag170
ag173
aa(lp606
g412
ag379
ag170
ag175
aa(lp607
g412
ag379
ag170
ag177
aa(lp608
g412
ag379
ag179
ag171
aa(lp609
g412
ag379
ag179
ag173
aa(lp610
g412
ag379
ag179
ag175
aa(lp611
g412
ag379
ag179
ag177
aa(lp612
g412
ag379
ag184
ag171
aa(lp613
g412
ag379
ag184
ag173
aa(lp614
g412
ag379
ag184
ag175
aa(lp615
g412
ag379
ag184
ag177
aa(lp616
g412
ag379
ag189
ag171
aa(lp617
g412
ag379
ag189
ag173
aa(lp618
g412
ag379
ag189
ag175
aa(lp619
g412
ag379
ag189
ag177
aa(lp620
g412
ag379
ag194
ag171
aa(lp621
g412
ag379
ag194
ag173
aa(lp622
g412
ag379
ag194
ag175
aa(lp623
g412
ag379
ag194
ag177
aa(lp624
g412
ag379
ag199
ag171
aa(lp625
g412
ag379
ag199
ag173
aa(lp626
g412
ag379
ag199
ag175
aa(lp627
g412
ag379
ag199
ag177
aa(lp628
g412
ag379
ag204
ag171
aa(lp629
g412
ag379
ag204
ag173
aa(lp630
g412
ag379
ag204
ag175
aa(lp631
g412
ag379
ag204
ag177
aa(lp632
g412
ag379
ag209
ag171
aa(lp633
g412
ag379
ag209
ag173
aa(lp634
g412
ag379
ag209
ag175
aa(lp635
g412
ag379
ag209
ag177
aa(lp636
S'Al-Qaeda'
p637
aS'Sa\xc3\xafd'
p638
aS'Charlie'
p639
aa(lp640
g637
ag638
aS'Hebdo'
p641
aa(lp642
g637
aS'Ch\xc3\xa9rif'
p643
ag639
aa(lp644
g637
ag643
ag641
aa(lp645
g637
aS'Kouachi'
p646
ag639
aa(lp647
g637
ag646
ag641
aa(lp648
S'Anwar'
p649
ag638
ag639
aa(lp650
g649
ag638
ag641
aa(lp651
g649
ag643
ag639
aa(lp652
g649
ag643
ag641
aa(lp653
g649
ag646
ag639
aa(lp654
g649
ag646
ag641
aa(lp655
S'al-Awlaki'
p656
ag638
ag639
aa(lp657
g656
ag638
ag641
aa(lp658
g656
ag643
ag639
aa(lp659
g656
ag643
ag641
aa(lp660
g656
ag646
ag639
aa(lp661
g656
ag646
ag641
aa(lp662
S'AQAP'
p663
ag638
ag639
aa(lp664
g663
ag638
ag641
aa(lp665
g663
ag643
ag639
aa(lp666
g663
ag643
ag641
aa(lp667
g663
ag646
ag639
aa(lp668
g663
ag646
ag641
aasS'martin'
p669
(lp670
(lp671
S'Philip'
p672
aS'big six'
p673
aS'Washington'
p674
aS'civil'
p675
aa(lp676
g672
ag673
ag674
aS'rights'
p677
aa(lp678
g672
ag673
ag674
aS'1964'
p679
aa(lp680
g672
ag673
ag674
aS'1965'
p681
aa(lp682
g672
ag673
ag674
aS'act'
p683
aa(lp684
g672
ag673
aS'Monument'
p685
ag675
aa(lp686
g672
ag673
ag685
ag677
aa(lp687
g672
ag673
ag685
ag679
aa(lp688
g672
ag673
ag685
ag681
aa(lp689
g672
ag673
ag685
ag683
aa(lp690
g672
ag673
aS'Lincoln'
p691
ag675
aa(lp692
g672
ag673
ag691
ag677
aa(lp693
g672
ag673
ag691
ag679
aa(lp694
g672
ag673
ag691
ag681
aa(lp695
g672
ag673
ag691
ag683
aa(lp696
g672
ag673
aS'Memorial'
p697
ag675
aa(lp698
g672
ag673
ag697
ag677
aa(lp699
g672
ag673
ag697
ag679
aa(lp700
g672
ag673
ag697
ag681
aa(lp701
g672
ag673
ag697
ag683
aa(lp702
g672
aS'six'
p703
ag674
ag675
aa(lp704
g672
ag703
ag674
ag677
aa(lp705
g672
ag703
ag674
ag679
aa(lp706
g672
ag703
ag674
ag681
aa(lp707
g672
ag703
ag674
ag683
aa(lp708
g672
ag703
ag685
ag675
aa(lp709
g672
ag703
ag685
ag677
aa(lp710
g672
ag703
ag685
ag679
aa(lp711
g672
ag703
ag685
ag681
aa(lp712
g672
ag703
ag685
ag683
aa(lp713
g672
ag703
ag691
ag675
aa(lp714
g672
ag703
ag691
ag677
aa(lp715
g672
ag703
ag691
ag679
aa(lp716
g672
ag703
ag691
ag681
aa(lp717
g672
ag703
ag691
ag683
aa(lp718
g672
ag703
ag697
ag675
aa(lp719
g672
ag703
ag697
ag677
aa(lp720
g672
ag703
ag697
ag679
aa(lp721
g672
ag703
ag697
ag681
aa(lp722
g672
ag703
ag697
ag683
aa(lp723
g672
aS'Martin'
p724
ag674
ag675
aa(lp725
g672
ag724
ag674
ag677
aa(lp726
g672
ag724
ag674
ag679
aa(lp727
g672
ag724
ag674
ag681
aa(lp728
g672
ag724
ag674
ag683
aa(lp729
g672
ag724
ag685
ag675
aa(lp730
g672
ag724
ag685
ag677
aa(lp731
g672
ag724
ag685
ag679
aa(lp732
g672
ag724
ag685
ag681
aa(lp733
g672
ag724
ag685
ag683
aa(lp734
g672
ag724
ag691
ag675
aa(lp735
g672
ag724
ag691
ag677
aa(lp736
g672
ag724
ag691
ag679
aa(lp737
g672
ag724
ag691
ag681
aa(lp738
g672
ag724
ag691
ag683
aa(lp739
g672
ag724
ag697
ag675
aa(lp740
g672
ag724
ag697
ag677
aa(lp741
g672
ag724
ag697
ag679
aa(lp742
g672
ag724
ag697
ag681
aa(lp743
g672
ag724
ag697
ag683
aa(lp744
g672
aS'Luther'
p745
ag674
ag675
aa(lp746
g672
ag745
ag674
ag677
aa(lp747
g672
ag745
ag674
ag679
aa(lp748
g672
ag745
ag674
ag681
aa(lp749
g672
ag745
ag674
ag683
aa(lp750
g672
ag745
ag685
ag675
aa(lp751
g672
ag745
ag685
ag677
aa(lp752
g672
ag745
ag685
ag679
aa(lp753
g672
ag745
ag685
ag681
aa(lp754
g672
ag745
ag685
ag683
aa(lp755
g672
ag745
ag691
ag675
aa(lp756
g672
ag745
ag691
ag677
aa(lp757
g672
ag745
ag691
ag679
aa(lp758
g672
ag745
ag691
ag681
aa(lp759
g672
ag745
ag691
ag683
aa(lp760
g672
ag745
ag697
ag675
aa(lp761
g672
ag745
ag697
ag677
aa(lp762
g672
ag745
ag697
ag679
aa(lp763
g672
ag745
ag697
ag681
aa(lp764
g672
ag745
ag697
ag683
aa(lp765
g672
aS'King'
p766
ag674
ag675
aa(lp767
g672
ag766
ag674
ag677
aa(lp768
g672
ag766
ag674
ag679
aa(lp769
g672
ag766
ag674
ag681
aa(lp770
g672
ag766
ag674
ag683
aa(lp771
g672
ag766
ag685
ag675
aa(lp772
g672
ag766
ag685
ag677
aa(lp773
g672
ag766
ag685
ag679
aa(lp774
g672
ag766
ag685
ag681
aa(lp775
g672
ag766
ag685
ag683
aa(lp776
g672
ag766
ag691
ag675
aa(lp777
g672
ag766
ag691
ag677
aa(lp778
g672
ag766
ag691
ag679
aa(lp779
g672
ag766
ag691
ag681
aa(lp780
g672
ag766
ag691
ag683
aa(lp781
g672
ag766
ag697
ag675
aa(lp782
g672
ag766
ag697
ag677
aa(lp783
g672
ag766
ag697
ag679
aa(lp784
g672
ag766
ag697
ag681
aa(lp785
g672
ag766
ag697
ag683
aa(lp786
g672
aS'James'
p787
ag674
ag675
aa(lp788
g672
ag787
ag674
ag677
aa(lp789
g672
ag787
ag674
ag679
aa(lp790
g672
ag787
ag674
ag681
aa(lp791
g672
ag787
ag674
ag683
aa(lp792
g672
ag787
ag685
ag675
aa(lp793
g672
ag787
ag685
ag677
aa(lp794
g672
ag787
ag685
ag679
aa(lp795
g672
ag787
ag685
ag681
aa(lp796
g672
ag787
ag685
ag683
aa(lp797
g672
ag787
ag691
ag675
aa(lp798
g672
ag787
ag691
ag677
aa(lp799
g672
ag787
ag691
ag679
aa(lp800
g672
ag787
ag691
ag681
aa(lp801
g672
ag787
ag691
ag683
aa(lp802
g672
ag787
ag697
ag675
aa(lp803
g672
ag787
ag697
ag677
aa(lp804
g672
ag787
ag697
ag679
aa(lp805
g672
ag787
ag697
ag681
aa(lp806
g672
ag787
ag697
ag683
aa(lp807
g672
aS'Farmer'
p808
ag674
ag675
aa(lp809
g672
ag808
ag674
ag677
aa(lp810
g672
ag808
ag674
ag679
aa(lp811
g672
ag808
ag674
ag681
aa(lp812
g672
ag808
ag674
ag683
aa(lp813
g672
ag808
ag685
ag675
aa(lp814
g672
ag808
ag685
ag677
aa(lp815
g672
ag808
ag685
ag679
aa(lp816
g672
ag808
ag685
ag681
aa(lp817
g672
ag808
ag685
ag683
aa(lp818
g672
ag808
ag691
ag675
aa(lp819
g672
ag808
ag691
ag677
aa(lp820
g672
ag808
ag691
ag679
aa(lp821
g672
ag808
ag691
ag681
aa(lp822
g672
ag808
ag691
ag683
aa(lp823
g672
ag808
ag697
ag675
aa(lp824
g672
ag808
ag697
ag677
aa(lp825
g672
ag808
ag697
ag679
aa(lp826
g672
ag808
ag697
ag681
aa(lp827
g672
ag808
ag697
ag683
aa(lp828
g672
aS'John'
p829
ag674
ag675
aa(lp830
g672
ag829
ag674
ag677
aa(lp831
g672
ag829
ag674
ag679
aa(lp832
g672
ag829
ag674
ag681
aa(lp833
g672
ag829
ag674
ag683
aa(lp834
g672
ag829
ag685
ag675
aa(lp835
g672
ag829
ag685
ag677
aa(lp836
g672
ag829
ag685
ag679
aa(lp837
g672
ag829
ag685
ag681
aa(lp838
g672
ag829
ag685
ag683
aa(lp839
g672
ag829
ag691
ag675
aa(lp840
g672
ag829
ag691
ag677
aa(lp841
g672
ag829
ag691
ag679
aa(lp842
g672
ag829
ag691
ag681
aa(lp843
g672
ag829
ag691
ag683
aa(lp844
g672
ag829
ag697
ag675
aa(lp845
g672
ag829
ag697
ag677
aa(lp846
g672
ag829
ag697
ag679
aa(lp847
g672
ag829
ag697
ag681
aa(lp848
g672
ag829
ag697
ag683
aa(lp849
g672
aS'Lewis'
p850
ag674
ag675
aa(lp851
g672
ag850
ag674
ag677
aa(lp852
g672
ag850
ag674
ag679
aa(lp853
g672
ag850
ag674
ag681
aa(lp854
g672
ag850
ag674
ag683
aa(lp855
g672
ag850
ag685
ag675
aa(lp856
g672
ag850
ag685
ag677
aa(lp857
g672
ag850
ag685
ag679
aa(lp858
g672
ag850
ag685
ag681
aa(lp859
g672
ag850
ag685
ag683
aa(lp860
g672
ag850
ag691
ag675
aa(lp861
g672
ag850
ag691
ag677
aa(lp862
g672
ag850
ag691
ag679
aa(lp863
g672
ag850
ag691
ag681
aa(lp864
g672
ag850
ag691
ag683
aa(lp865
g672
ag850
ag697
ag675
aa(lp866
g672
ag850
ag697
ag677
aa(lp867
g672
ag850
ag697
ag679
aa(lp868
g672
ag850
ag697
ag681
aa(lp869
g672
ag850
ag697
ag683
aa(lp870
g672
aS'Roy'
p871
ag674
ag675
aa(lp872
g672
ag871
ag674
ag677
aa(lp873
g672
ag871
ag674
ag679
aa(lp874
g672
ag871
ag674
ag681
aa(lp875
g672
ag871
ag674
ag683
aa(lp876
g672
ag871
ag685
ag675
aa(lp877
g672
ag871
ag685
ag677
aa(lp878
g672
ag871
ag685
ag679
aa(lp879
g672
ag871
ag685
ag681
aa(lp880
g672
ag871
ag685
ag683
aa(lp881
g672
ag871
ag691
ag675
aa(lp882
g672
ag871
ag691
ag677
aa(lp883
g672
ag871
ag691
ag679
aa(lp884
g672
ag871
ag691
ag681
aa(lp885
g672
ag871
ag691
ag683
aa(lp886
g672
ag871
ag697
ag675
aa(lp887
g672
ag871
ag697
ag677
aa(lp888
g672
ag871
ag697
ag679
aa(lp889
g672
ag871
ag697
ag681
aa(lp890
g672
ag871
ag697
ag683
aa(lp891
g672
aS'Wilkins'
p892
ag674
ag675
aa(lp893
g672
ag892
ag674
ag677
aa(lp894
g672
ag892
ag674
ag679
aa(lp895
g672
ag892
ag674
ag681
aa(lp896
g672
ag892
ag674
ag683
aa(lp897
g672
ag892
ag685
ag675
aa(lp898
g672
ag892
ag685
ag677
aa(lp899
g672
ag892
ag685
ag679
aa(lp900
g672
ag892
ag685
ag681
aa(lp901
g672
ag892
ag685
ag683
aa(lp902
g672
ag892
ag691
ag675
aa(lp903
g672
ag892
ag691
ag677
aa(lp904
g672
ag892
ag691
ag679
aa(lp905
g672
ag892
ag691
ag681
aa(lp906
g672
ag892
ag691
ag683
aa(lp907
g672
ag892
ag697
ag675
aa(lp908
g672
ag892
ag697
ag677
aa(lp909
g672
ag892
ag697
ag679
aa(lp910
g672
ag892
ag697
ag681
aa(lp911
g672
ag892
ag697
ag683
aa(lp912
g672
aS'Whitney'
p913
ag674
ag675
aa(lp914
g672
ag913
ag674
ag677
aa(lp915
g672
ag913
ag674
ag679
aa(lp916
g672
ag913
ag674
ag681
aa(lp917
g672
ag913
ag674
ag683
aa(lp918
g672
ag913
ag685
ag675
aa(lp919
g672
ag913
ag685
ag677
aa(lp920
g672
ag913
ag685
ag679
aa(lp921
g672
ag913
ag685
ag681
aa(lp922
g672
ag913
ag685
ag683
aa(lp923
g672
ag913
ag691
ag675
aa(lp924
g672
ag913
ag691
ag677
aa(lp925
g672
ag913
ag691
ag679
aa(lp926
g672
ag913
ag691
ag681
aa(lp927
g672
ag913
ag691
ag683
aa(lp928
g672
ag913
ag697
ag675
aa(lp929
g672
ag913
ag697
ag677
aa(lp930
g672
ag913
ag697
ag679
aa(lp931
g672
ag913
ag697
ag681
aa(lp932
g672
ag913
ag697
ag683
aa(lp933
g672
aS'Young'
p934
ag674
ag675
aa(lp935
g672
ag934
ag674
ag677
aa(lp936
g672
ag934
ag674
ag679
aa(lp937
g672
ag934
ag674
ag681
aa(lp938
g672
ag934
ag674
ag683
aa(lp939
g672
ag934
ag685
ag675
aa(lp940
g672
ag934
ag685
ag677
aa(lp941
g672
ag934
ag685
ag679
aa(lp942
g672
ag934
ag685
ag681
aa(lp943
g672
ag934
ag685
ag683
aa(lp944
g672
ag934
ag691
ag675
aa(lp945
g672
ag934
ag691
ag677
aa(lp946
g672
ag934
ag691
ag679
aa(lp947
g672
ag934
ag691
ag681
aa(lp948
g672
ag934
ag691
ag683
aa(lp949
g672
ag934
ag697
ag675
aa(lp950
g672
ag934
ag697
ag677
aa(lp951
g672
ag934
ag697
ag679
aa(lp952
g672
ag934
ag697
ag681
aa(lp953
g672
ag934
ag697
ag683
aa(lp954
S'Randolph'
p955
ag673
ag674
ag675
aa(lp956
g955
ag673
ag674
ag677
aa(lp957
g955
ag673
ag674
ag679
aa(lp958
g955
ag673
ag674
ag681
aa(lp959
g955
ag673
ag674
ag683
aa(lp960
g955
ag673
ag685
ag675
aa(lp961
g955
ag673
ag685
ag677
aa(lp962
g955
ag673
ag685
ag679
aa(lp963
g955
ag673
ag685
ag681
aa(lp964
g955
ag673
ag685
ag683
aa(lp965
g955
ag673
ag691
ag675
aa(lp966
g955
ag673
ag691
ag677
aa(lp967
g955
ag673
ag691
ag679
aa(lp968
g955
ag673
ag691
ag681
aa(lp969
g955
ag673
ag691
ag683
aa(lp970
g955
ag673
ag697
ag675
aa(lp971
g955
ag673
ag697
ag677
aa(lp972
g955
ag673
ag697
ag679
aa(lp973
g955
ag673
ag697
ag681
aa(lp974
g955
ag673
ag697
ag683
aa(lp975
g955
ag703
ag674
ag675
aa(lp976
g955
ag703
ag674
ag677
aa(lp977
g955
ag703
ag674
ag679
aa(lp978
g955
ag703
ag674
ag681
aa(lp979
g955
ag703
ag674
ag683
aa(lp980
g955
ag703
ag685
ag675
aa(lp981
g955
ag703
ag685
ag677
aa(lp982
g955
ag703
ag685
ag679
aa(lp983
g955
ag703
ag685
ag681
aa(lp984
g955
ag703
ag685
ag683
aa(lp985
g955
ag703
ag691
ag675
aa(lp986
g955
ag703
ag691
ag677
aa(lp987
g955
ag703
ag691
ag679
aa(lp988
g955
ag703
ag691
ag681
aa(lp989
g955
ag703
ag691
ag683
aa(lp990
g955
ag703
ag697
ag675
aa(lp991
g955
ag703
ag697
ag677
aa(lp992
g955
ag703
ag697
ag679
aa(lp993
g955
ag703
ag697
ag681
aa(lp994
g955
ag703
ag697
ag683
aa(lp995
g955
ag724
ag674
ag675
aa(lp996
g955
ag724
ag674
ag677
aa(lp997
g955
ag724
ag674
ag679
aa(lp998
g955
ag724
ag674
ag681
aa(lp999
g955
ag724
ag674
ag683
aa(lp1000
g955
ag724
ag685
ag675
aa(lp1001
g955
ag724
ag685
ag677
aa(lp1002
g955
ag724
ag685
ag679
aa(lp1003
g955
ag724
ag685
ag681
aa(lp1004
g955
ag724
ag685
ag683
aa(lp1005
g955
ag724
ag691
ag675
aa(lp1006
g955
ag724
ag691
ag677
aa(lp1007
g955
ag724
ag691
ag679
aa(lp1008
g955
ag724
ag691
ag681
aa(lp1009
g955
ag724
ag691
ag683
aa(lp1010
g955
ag724
ag697
ag675
aa(lp1011
g955
ag724
ag697
ag677
aa(lp1012
g955
ag724
ag697
ag679
aa(lp1013
g955
ag724
ag697
ag681
aa(lp1014
g955
ag724
ag697
ag683
aa(lp1015
g955
ag745
ag674
ag675
aa(lp1016
g955
ag745
ag674
ag677
aa(lp1017
g955
ag745
ag674
ag679
aa(lp1018
g955
ag745
ag674
ag681
aa(lp1019
g955
ag745
ag674
ag683
aa(lp1020
g955
ag745
ag685
ag675
aa(lp1021
g955
ag745
ag685
ag677
aa(lp1022
g955
ag745
ag685
ag679
aa(lp1023
g955
ag745
ag685
ag681
aa(lp1024
g955
ag745
ag685
ag683
aa(lp1025
g955
ag745
ag691
ag675
aa(lp1026
g955
ag745
ag691
ag677
aa(lp1027
g955
ag745
ag691
ag679
aa(lp1028
g955
ag745
ag691
ag681
aa(lp1029
g955
ag745
ag691
ag683
aa(lp1030
g955
ag745
ag697
ag675
aa(lp1031
g955
ag745
ag697
ag677
aa(lp1032
g955
ag745
ag697
ag679
aa(lp1033
g955
ag745
ag697
ag681
aa(lp1034
g955
ag745
ag697
ag683
aa(lp1035
g955
ag766
ag674
ag675
aa(lp1036
g955
ag766
ag674
ag677
aa(lp1037
g955
ag766
ag674
ag679
aa(lp1038
g955
ag766
ag674
ag681
aa(lp1039
g955
ag766
ag674
ag683
aa(lp1040
g955
ag766
ag685
ag675
aa(lp1041
g955
ag766
ag685
ag677
aa(lp1042
g955
ag766
ag685
ag679
aa(lp1043
g955
ag766
ag685
ag681
aa(lp1044
g955
ag766
ag685
ag683
aa(lp1045
g955
ag766
ag691
ag675
aa(lp1046
g955
ag766
ag691
ag677
aa(lp1047
g955
ag766
ag691
ag679
aa(lp1048
g955
ag766
ag691
ag681
aa(lp1049
g955
ag766
ag691
ag683
aa(lp1050
g955
ag766
ag697
ag675
aa(lp1051
g955
ag766
ag697
ag677
aa(lp1052
g955
ag766
ag697
ag679
aa(lp1053
g955
ag766
ag697
ag681
aa(lp1054
g955
ag766
ag697
ag683
aa(lp1055
g955
ag787
ag674
ag675
aa(lp1056
g955
ag787
ag674
ag677
aa(lp1057
g955
ag787
ag674
ag679
aa(lp1058
g955
ag787
ag674
ag681
aa(lp1059
g955
ag787
ag674
ag683
aa(lp1060
g955
ag787
ag685
ag675
aa(lp1061
g955
ag787
ag685
ag677
aa(lp1062
g955
ag787
ag685
ag679
aa(lp1063
g955
ag787
ag685
ag681
aa(lp1064
g955
ag787
ag685
ag683
aa(lp1065
g955
ag787
ag691
ag675
aa(lp1066
g955
ag787
ag691
ag677
aa(lp1067
g955
ag787
ag691
ag679
aa(lp1068
g955
ag787
ag691
ag681
aa(lp1069
g955
ag787
ag691
ag683
aa(lp1070
g955
ag787
ag697
ag675
aa(lp1071
g955
ag787
ag697
ag677
aa(lp1072
g955
ag787
ag697
ag679
aa(lp1073
g955
ag787
ag697
ag681
aa(lp1074
g955
ag787
ag697
ag683
aa(lp1075
g955
ag808
ag674
ag675
aa(lp1076
g955
ag808
ag674
ag677
aa(lp1077
g955
ag808
ag674
ag679
aa(lp1078
g955
ag808
ag674
ag681
aa(lp1079
g955
ag808
ag674
ag683
aa(lp1080
g955
ag808
ag685
ag675
aa(lp1081
g955
ag808
ag685
ag677
aa(lp1082
g955
ag808
ag685
ag679
aa(lp1083
g955
ag808
ag685
ag681
aa(lp1084
g955
ag808
ag685
ag683
aa(lp1085
g955
ag808
ag691
ag675
aa(lp1086
g955
ag808
ag691
ag677
aa(lp1087
g955
ag808
ag691
ag679
aa(lp1088
g955
ag808
ag691
ag681
aa(lp1089
g955
ag808
ag691
ag683
aa(lp1090
g955
ag808
ag697
ag675
aa(lp1091
g955
ag808
ag697
ag677
aa(lp1092
g955
ag808
ag697
ag679
aa(lp1093
g955
ag808
ag697
ag681
aa(lp1094
g955
ag808
ag697
ag683
aa(lp1095
g955
ag829
ag674
ag675
aa(lp1096
g955
ag829
ag674
ag677
aa(lp1097
g955
ag829
ag674
ag679
aa(lp1098
g955
ag829
ag674
ag681
aa(lp1099
g955
ag829
ag674
ag683
aa(lp1100
g955
ag829
ag685
ag675
aa(lp1101
g955
ag829
ag685
ag677
aa(lp1102
g955
ag829
ag685
ag679
aa(lp1103
g955
ag829
ag685
ag681
aa(lp1104
g955
ag829
ag685
ag683
aa(lp1105
g955
ag829
ag691
ag675
aa(lp1106
g955
ag829
ag691
ag677
aa(lp1107
g955
ag829
ag691
ag679
aa(lp1108
g955
ag829
ag691
ag681
aa(lp1109
g955
ag829
ag691
ag683
aa(lp1110
g955
ag829
ag697
ag675
aa(lp1111
g955
ag829
ag697
ag677
aa(lp1112
g955
ag829
ag697
ag679
aa(lp1113
g955
ag829
ag697
ag681
aa(lp1114
g955
ag829
ag697
ag683
aa(lp1115
g955
ag850
ag674
ag675
aa(lp1116
g955
ag850
ag674
ag677
aa(lp1117
g955
ag850
ag674
ag679
aa(lp1118
g955
ag850
ag674
ag681
aa(lp1119
g955
ag850
ag674
ag683
aa(lp1120
g955
ag850
ag685
ag675
aa(lp1121
g955
ag850
ag685
ag677
aa(lp1122
g955
ag850
ag685
ag679
aa(lp1123
g955
ag850
ag685
ag681
aa(lp1124
g955
ag850
ag685
ag683
aa(lp1125
g955
ag850
ag691
ag675
aa(lp1126
g955
ag850
ag691
ag677
aa(lp1127
g955
ag850
ag691
ag679
aa(lp1128
g955
ag850
ag691
ag681
aa(lp1129
g955
ag850
ag691
ag683
aa(lp1130
g955
ag850
ag697
ag675
aa(lp1131
g955
ag850
ag697
ag677
aa(lp1132
g955
ag850
ag697
ag679
aa(lp1133
g955
ag850
ag697
ag681
aa(lp1134
g955
ag850
ag697
ag683
aa(lp1135
g955
ag871
ag674
ag675
aa(lp1136
g955
ag871
ag674
ag677
aa(lp1137
g955
ag871
ag674
ag679
aa(lp1138
g955
ag871
ag674
ag681
aa(lp1139
g955
ag871
ag674
ag683
aa(lp1140
g955
ag871
ag685
ag675
aa(lp1141
g955
ag871
ag685
ag677
aa(lp1142
g955
ag871
ag685
ag679
aa(lp1143
g955
ag871
ag685
ag681
aa(lp1144
g955
ag871
ag685
ag683
aa(lp1145
g955
ag871
ag691
ag675
aa(lp1146
g955
ag871
ag691
ag677
aa(lp1147
g955
ag871
ag691
ag679
aa(lp1148
g955
ag871
ag691
ag681
aa(lp1149
g955
ag871
ag691
ag683
aa(lp1150
g955
ag871
ag697
ag675
aa(lp1151
g955
ag871
ag697
ag677
aa(lp1152
g955
ag871
ag697
ag679
aa(lp1153
g955
ag871
ag697
ag681
aa(lp1154
g955
ag871
ag697
ag683
aa(lp1155
g955
ag892
ag674
ag675
aa(lp1156
g955
ag892
ag674
ag677
aa(lp1157
g955
ag892
ag674
ag679
aa(lp1158
g955
ag892
ag674
ag681
aa(lp1159
g955
ag892
ag674
ag683
aa(lp1160
g955
ag892
ag685
ag675
aa(lp1161
g955
ag892
ag685
ag677
aa(lp1162
g955
ag892
ag685
ag679
aa(lp1163
g955
ag892
ag685
ag681
aa(lp1164
g955
ag892
ag685
ag683
aa(lp1165
g955
ag892
ag691
ag675
aa(lp1166
g955
ag892
ag691
ag677
aa(lp1167
g955
ag892
ag691
ag679
aa(lp1168
g955
ag892
ag691
ag681
aa(lp1169
g955
ag892
ag691
ag683
aa(lp1170
g955
ag892
ag697
ag675
aa(lp1171
g955
ag892
ag697
ag677
aa(lp1172
g955
ag892
ag697
ag679
aa(lp1173
g955
ag892
ag697
ag681
aa(lp1174
g955
ag892
ag697
ag683
aa(lp1175
g955
ag913
ag674
ag675
aa(lp1176
g955
ag913
ag674
ag677
aa(lp1177
g955
ag913
ag674
ag679
aa(lp1178
g955
ag913
ag674
ag681
aa(lp1179
g955
ag913
ag674
ag683
aa(lp1180
g955
ag913
ag685
ag675
aa(lp1181
g955
ag913
ag685
ag677
aa(lp1182
g955
ag913
ag685
ag679
aa(lp1183
g955
ag913
ag685
ag681
aa(lp1184
g955
ag913
ag685
ag683
aa(lp1185
g955
ag913
ag691
ag675
aa(lp1186
g955
ag913
ag691
ag677
aa(lp1187
g955
ag913
ag691
ag679
aa(lp1188
g955
ag913
ag691
ag681
aa(lp1189
g955
ag913
ag691
ag683
aa(lp1190
g955
ag913
ag697
ag675
aa(lp1191
g955
ag913
ag697
ag677
aa(lp1192
g955
ag913
ag697
ag679
aa(lp1193
g955
ag913
ag697
ag681
aa(lp1194
g955
ag913
ag697
ag683
aa(lp1195
g955
ag934
ag674
ag675
aa(lp1196
g955
ag934
ag674
ag677
aa(lp1197
g955
ag934
ag674
ag679
aa(lp1198
g955
ag934
ag674
ag681
aa(lp1199
g955
ag934
ag674
ag683
aa(lp1200
g955
ag934
ag685
ag675
aa(lp1201
g955
ag934
ag685
ag677
aa(lp1202
g955
ag934
ag685
ag679
aa(lp1203
g955
ag934
ag685
ag681
aa(lp1204
g955
ag934
ag685
ag683
aa(lp1205
g955
ag934
ag691
ag675
aa(lp1206
g955
ag934
ag691
ag677
aa(lp1207
g955
ag934
ag691
ag679
aa(lp1208
g955
ag934
ag691
ag681
aa(lp1209
g955
ag934
ag691
ag683
aa(lp1210
g955
ag934
ag697
ag675
aa(lp1211
g955
ag934
ag697
ag677
aa(lp1212
g955
ag934
ag697
ag679
aa(lp1213
g955
ag934
ag697
ag681
aa(lp1214
g955
ag934
ag697
ag683
aa(lp1215
S'Bayard'
p1216
ag673
ag674
ag675
aa(lp1217
g1216
ag673
ag674
ag677
aa(lp1218
g1216
ag673
ag674
ag679
aa(lp1219
g1216
ag673
ag674
ag681
aa(lp1220
g1216
ag673
ag674
ag683
aa(lp1221
g1216
ag673
ag685
ag675
aa(lp1222
g1216
ag673
ag685
ag677
aa(lp1223
g1216
ag673
ag685
ag679
aa(lp1224
g1216
ag673
ag685
ag681
aa(lp1225
g1216
ag673
ag685
ag683
aa(lp1226
g1216
ag673
ag691
ag675
aa(lp1227
g1216
ag673
ag691
ag677
aa(lp1228
g1216
ag673
ag691
ag679
aa(lp1229
g1216
ag673
ag691
ag681
aa(lp1230
g1216
ag673
ag691
ag683
aa(lp1231
g1216
ag673
ag697
ag675
aa(lp1232
g1216
ag673
ag697
ag677
aa(lp1233
g1216
ag673
ag697
ag679
aa(lp1234
g1216
ag673
ag697
ag681
aa(lp1235
g1216
ag673
ag697
ag683
aa(lp1236
g1216
ag703
ag674
ag675
aa(lp1237
g1216
ag703
ag674
ag677
aa(lp1238
g1216
ag703
ag674
ag679
aa(lp1239
g1216
ag703
ag674
ag681
aa(lp1240
g1216
ag703
ag674
ag683
aa(lp1241
g1216
ag703
ag685
ag675
aa(lp1242
g1216
ag703
ag685
ag677
aa(lp1243
g1216
ag703
ag685
ag679
aa(lp1244
g1216
ag703
ag685
ag681
aa(lp1245
g1216
ag703
ag685
ag683
aa(lp1246
g1216
ag703
ag691
ag675
aa(lp1247
g1216
ag703
ag691
ag677
aa(lp1248
g1216
ag703
ag691
ag679
aa(lp1249
g1216
ag703
ag691
ag681
aa(lp1250
g1216
ag703
ag691
ag683
aa(lp1251
g1216
ag703
ag697
ag675
aa(lp1252
g1216
ag703
ag697
ag677
aa(lp1253
g1216
ag703
ag697
ag679
aa(lp1254
g1216
ag703
ag697
ag681
aa(lp1255
g1216
ag703
ag697
ag683
aa(lp1256
g1216
ag724
ag674
ag675
aa(lp1257
g1216
ag724
ag674
ag677
aa(lp1258
g1216
ag724
ag674
ag679
aa(lp1259
g1216
ag724
ag674
ag681
aa(lp1260
g1216
ag724
ag674
ag683
aa(lp1261
g1216
ag724
ag685
ag675
aa(lp1262
g1216
ag724
ag685
ag677
aa(lp1263
g1216
ag724
ag685
ag679
aa(lp1264
g1216
ag724
ag685
ag681
aa(lp1265
g1216
ag724
ag685
ag683
aa(lp1266
g1216
ag724
ag691
ag675
aa(lp1267
g1216
ag724
ag691
ag677
aa(lp1268
g1216
ag724
ag691
ag679
aa(lp1269
g1216
ag724
ag691
ag681
aa(lp1270
g1216
ag724
ag691
ag683
aa(lp1271
g1216
ag724
ag697
ag675
aa(lp1272
g1216
ag724
ag697
ag677
aa(lp1273
g1216
ag724
ag697
ag679
aa(lp1274
g1216
ag724
ag697
ag681
aa(lp1275
g1216
ag724
ag697
ag683
aa(lp1276
g1216
ag745
ag674
ag675
aa(lp1277
g1216
ag745
ag674
ag677
aa(lp1278
g1216
ag745
ag674
ag679
aa(lp1279
g1216
ag745
ag674
ag681
aa(lp1280
g1216
ag745
ag674
ag683
aa(lp1281
g1216
ag745
ag685
ag675
aa(lp1282
g1216
ag745
ag685
ag677
aa(lp1283
g1216
ag745
ag685
ag679
aa(lp1284
g1216
ag745
ag685
ag681
aa(lp1285
g1216
ag745
ag685
ag683
aa(lp1286
g1216
ag745
ag691
ag675
aa(lp1287
g1216
ag745
ag691
ag677
aa(lp1288
g1216
ag745
ag691
ag679
aa(lp1289
g1216
ag745
ag691
ag681
aa(lp1290
g1216
ag745
ag691
ag683
aa(lp1291
g1216
ag745
ag697
ag675
aa(lp1292
g1216
ag745
ag697
ag677
aa(lp1293
g1216
ag745
ag697
ag679
aa(lp1294
g1216
ag745
ag697
ag681
aa(lp1295
g1216
ag745
ag697
ag683
aa(lp1296
g1216
ag766
ag674
ag675
aa(lp1297
g1216
ag766
ag674
ag677
aa(lp1298
g1216
ag766
ag674
ag679
aa(lp1299
g1216
ag766
ag674
ag681
aa(lp1300
g1216
ag766
ag674
ag683
aa(lp1301
g1216
ag766
ag685
ag675
aa(lp1302
g1216
ag766
ag685
ag677
aa(lp1303
g1216
ag766
ag685
ag679
aa(lp1304
g1216
ag766
ag685
ag681
aa(lp1305
g1216
ag766
ag685
ag683
aa(lp1306
g1216
ag766
ag691
ag675
aa(lp1307
g1216
ag766
ag691
ag677
aa(lp1308
g1216
ag766
ag691
ag679
aa(lp1309
g1216
ag766
ag691
ag681
aa(lp1310
g1216
ag766
ag691
ag683
aa(lp1311
g1216
ag766
ag697
ag675
aa(lp1312
g1216
ag766
ag697
ag677
aa(lp1313
g1216
ag766
ag697
ag679
aa(lp1314
g1216
ag766
ag697
ag681
aa(lp1315
g1216
ag766
ag697
ag683
aa(lp1316
g1216
ag787
ag674
ag675
aa(lp1317
g1216
ag787
ag674
ag677
aa(lp1318
g1216
ag787
ag674
ag679
aa(lp1319
g1216
ag787
ag674
ag681
aa(lp1320
g1216
ag787
ag674
ag683
aa(lp1321
g1216
ag787
ag685
ag675
aa(lp1322
g1216
ag787
ag685
ag677
aa(lp1323
g1216
ag787
ag685
ag679
aa(lp1324
g1216
ag787
ag685
ag681
aa(lp1325
g1216
ag787
ag685
ag683
aa(lp1326
g1216
ag787
ag691
ag675
aa(lp1327
g1216
ag787
ag691
ag677
aa(lp1328
g1216
ag787
ag691
ag679
aa(lp1329
g1216
ag787
ag691
ag681
aa(lp1330
g1216
ag787
ag691
ag683
aa(lp1331
g1216
ag787
ag697
ag675
aa(lp1332
g1216
ag787
ag697
ag677
aa(lp1333
g1216
ag787
ag697
ag679
aa(lp1334
g1216
ag787
ag697
ag681
aa(lp1335
g1216
ag787
ag697
ag683
aa(lp1336
g1216
ag808
ag674
ag675
aa(lp1337
g1216
ag808
ag674
ag677
aa(lp1338
g1216
ag808
ag674
ag679
aa(lp1339
g1216
ag808
ag674
ag681
aa(lp1340
g1216
ag808
ag674
ag683
aa(lp1341
g1216
ag808
ag685
ag675
aa(lp1342
g1216
ag808
ag685
ag677
aa(lp1343
g1216
ag808
ag685
ag679
aa(lp1344
g1216
ag808
ag685
ag681
aa(lp1345
g1216
ag808
ag685
ag683
aa(lp1346
g1216
ag808
ag691
ag675
aa(lp1347
g1216
ag808
ag691
ag677
aa(lp1348
g1216
ag808
ag691
ag679
aa(lp1349
g1216
ag808
ag691
ag681
aa(lp1350
g1216
ag808
ag691
ag683
aa(lp1351
g1216
ag808
ag697
ag675
aa(lp1352
g1216
ag808
ag697
ag677
aa(lp1353
g1216
ag808
ag697
ag679
aa(lp1354
g1216
ag808
ag697
ag681
aa(lp1355
g1216
ag808
ag697
ag683
aa(lp1356
g1216
ag829
ag674
ag675
aa(lp1357
g1216
ag829
ag674
ag677
aa(lp1358
g1216
ag829
ag674
ag679
aa(lp1359
g1216
ag829
ag674
ag681
aa(lp1360
g1216
ag829
ag674
ag683
aa(lp1361
g1216
ag829
ag685
ag675
aa(lp1362
g1216
ag829
ag685
ag677
aa(lp1363
g1216
ag829
ag685
ag679
aa(lp1364
g1216
ag829
ag685
ag681
aa(lp1365
g1216
ag829
ag685
ag683
aa(lp1366
g1216
ag829
ag691
ag675
aa(lp1367
g1216
ag829
ag691
ag677
aa(lp1368
g1216
ag829
ag691
ag679
aa(lp1369
g1216
ag829
ag691
ag681
aa(lp1370
g1216
ag829
ag691
ag683
aa(lp1371
g1216
ag829
ag697
ag675
aa(lp1372
g1216
ag829
ag697
ag677
aa(lp1373
g1216
ag829
ag697
ag679
aa(lp1374
g1216
ag829
ag697
ag681
aa(lp1375
g1216
ag829
ag697
ag683
aa(lp1376
g1216
ag850
ag674
ag675
aa(lp1377
g1216
ag850
ag674
ag677
aa(lp1378
g1216
ag850
ag674
ag679
aa(lp1379
g1216
ag850
ag674
ag681
aa(lp1380
g1216
ag850
ag674
ag683
aa(lp1381
g1216
ag850
ag685
ag675
aa(lp1382
g1216
ag850
ag685
ag677
aa(lp1383
g1216
ag850
ag685
ag679
aa(lp1384
g1216
ag850
ag685
ag681
aa(lp1385
g1216
ag850
ag685
ag683
aa(lp1386
g1216
ag850
ag691
ag675
aa(lp1387
g1216
ag850
ag691
ag677
aa(lp1388
g1216
ag850
ag691
ag679
aa(lp1389
g1216
ag850
ag691
ag681
aa(lp1390
g1216
ag850
ag691
ag683
aa(lp1391
g1216
ag850
ag697
ag675
aa(lp1392
g1216
ag850
ag697
ag677
aa(lp1393
g1216
ag850
ag697
ag679
aa(lp1394
g1216
ag850
ag697
ag681
aa(lp1395
g1216
ag850
ag697
ag683
aa(lp1396
g1216
ag871
ag674
ag675
aa(lp1397
g1216
ag871
ag674
ag677
aa(lp1398
g1216
ag871
ag674
ag679
aa(lp1399
g1216
ag871
ag674
ag681
aa(lp1400
g1216
ag871
ag674
ag683
aa(lp1401
g1216
ag871
ag685
ag675
aa(lp1402
g1216
ag871
ag685
ag677
aa(lp1403
g1216
ag871
ag685
ag679
aa(lp1404
g1216
ag871
ag685
ag681
aa(lp1405
g1216
ag871
ag685
ag683
aa(lp1406
g1216
ag871
ag691
ag675
aa(lp1407
g1216
ag871
ag691
ag677
aa(lp1408
g1216
ag871
ag691
ag679
aa(lp1409
g1216
ag871
ag691
ag681
aa(lp1410
g1216
ag871
ag691
ag683
aa(lp1411
g1216
ag871
ag697
ag675
aa(lp1412
g1216
ag871
ag697
ag677
aa(lp1413
g1216
ag871
ag697
ag679
aa(lp1414
g1216
ag871
ag697
ag681
aa(lp1415
g1216
ag871
ag697
ag683
aa(lp1416
g1216
ag892
ag674
ag675
aa(lp1417
g1216
ag892
ag674
ag677
aa(lp1418
g1216
ag892
ag674
ag679
aa(lp1419
g1216
ag892
ag674
ag681
aa(lp1420
g1216
ag892
ag674
ag683
aa(lp1421
g1216
ag892
ag685
ag675
aa(lp1422
g1216
ag892
ag685
ag677
aa(lp1423
g1216
ag892
ag685
ag679
aa(lp1424
g1216
ag892
ag685
ag681
aa(lp1425
g1216
ag892
ag685
ag683
aa(lp1426
g1216
ag892
ag691
ag675
aa(lp1427
g1216
ag892
ag691
ag677
aa(lp1428
g1216
ag892
ag691
ag679
aa(lp1429
g1216
ag892
ag691
ag681
aa(lp1430
g1216
ag892
ag691
ag683
aa(lp1431
g1216
ag892
ag697
ag675
aa(lp1432
g1216
ag892
ag697
ag677
aa(lp1433
g1216
ag892
ag697
ag679
aa(lp1434
g1216
ag892
ag697
ag681
aa(lp1435
g1216
ag892
ag697
ag683
aa(lp1436
g1216
ag913
ag674
ag675
aa(lp1437
g1216
ag913
ag674
ag677
aa(lp1438
g1216
ag913
ag674
ag679
aa(lp1439
g1216
ag913
ag674
ag681
aa(lp1440
g1216
ag913
ag674
ag683
aa(lp1441
g1216
ag913
ag685
ag675
aa(lp1442
g1216
ag913
ag685
ag677
aa(lp1443
g1216
ag913
ag685
ag679
aa(lp1444
g1216
ag913
ag685
ag681
aa(lp1445
g1216
ag913
ag685
ag683
aa(lp1446
g1216
ag913
ag691
ag675
aa(lp1447
g1216
ag913
ag691
ag677
aa(lp1448
g1216
ag913
ag691
ag679
aa(lp1449
g1216
ag913
ag691
ag681
aa(lp1450
g1216
ag913
ag691
ag683
aa(lp1451
g1216
ag913
ag697
ag675
aa(lp1452
g1216
ag913
ag697
ag677
aa(lp1453
g1216
ag913
ag697
ag679
aa(lp1454
g1216
ag913
ag697
ag681
aa(lp1455
g1216
ag913
ag697
ag683
aa(lp1456
g1216
ag934
ag674
ag675
aa(lp1457
g1216
ag934
ag674
ag677
aa(lp1458
g1216
ag934
ag674
ag679
aa(lp1459
g1216
ag934
ag674
ag681
aa(lp1460
g1216
ag934
ag674
ag683
aa(lp1461
g1216
ag934
ag685
ag675
aa(lp1462
g1216
ag934
ag685
ag677
aa(lp1463
g1216
ag934
ag685
ag679
aa(lp1464
g1216
ag934
ag685
ag681
aa(lp1465
g1216
ag934
ag685
ag683
aa(lp1466
g1216
ag934
ag691
ag675
aa(lp1467
g1216
ag934
ag691
ag677
aa(lp1468
g1216
ag934
ag691
ag679
aa(lp1469
g1216
ag934
ag691
ag681
aa(lp1470
g1216
ag934
ag691
ag683
aa(lp1471
g1216
ag934
ag697
ag675
aa(lp1472
g1216
ag934
ag697
ag677
aa(lp1473
g1216
ag934
ag697
ag679
aa(lp1474
g1216
ag934
ag697
ag681
aa(lp1475
g1216
ag934
ag697
ag683
aa(lp1476
S'Rustin'
p1477
ag673
ag674
ag675
aa(lp1478
g1477
ag673
ag674
ag677
aa(lp1479
g1477
ag673
ag674
ag679
aa(lp1480
g1477
ag673
ag674
ag681
aa(lp1481
g1477
ag673
ag674
ag683
aa(lp1482
g1477
ag673
ag685
ag675
aa(lp1483
g1477
ag673
ag685
ag677
aa(lp1484
g1477
ag673
ag685
ag679
aa(lp1485
g1477
ag673
ag685
ag681
aa(lp1486
g1477
ag673
ag685
ag683
aa(lp1487
g1477
ag673
ag691
ag675
aa(lp1488
g1477
ag673
ag691
ag677
aa(lp1489
g1477
ag673
ag691
ag679
aa(lp1490
g1477
ag673
ag691
ag681
aa(lp1491
g1477
ag673
ag691
ag683
aa(lp1492
g1477
ag673
ag697
ag675
aa(lp1493
g1477
ag673
ag697
ag677
aa(lp1494
g1477
ag673
ag697
ag679
aa(lp1495
g1477
ag673
ag697
ag681
aa(lp1496
g1477
ag673
ag697
ag683
aa(lp1497
g1477
ag703
ag674
ag675
aa(lp1498
g1477
ag703
ag674
ag677
aa(lp1499
g1477
ag703
ag674
ag679
aa(lp1500
g1477
ag703
ag674
ag681
aa(lp1501
g1477
ag703
ag674
ag683
aa(lp1502
g1477
ag703
ag685
ag675
aa(lp1503
g1477
ag703
ag685
ag677
aa(lp1504
g1477
ag703
ag685
ag679
aa(lp1505
g1477
ag703
ag685
ag681
aa(lp1506
g1477
ag703
ag685
ag683
aa(lp1507
g1477
ag703
ag691
ag675
aa(lp1508
g1477
ag703
ag691
ag677
aa(lp1509
g1477
ag703
ag691
ag679
aa(lp1510
g1477
ag703
ag691
ag681
aa(lp1511
g1477
ag703
ag691
ag683
aa(lp1512
g1477
ag703
ag697
ag675
aa(lp1513
g1477
ag703
ag697
ag677
aa(lp1514
g1477
ag703
ag697
ag679
aa(lp1515
g1477
ag703
ag697
ag681
aa(lp1516
g1477
ag703
ag697
ag683
aa(lp1517
g1477
ag724
ag674
ag675
aa(lp1518
g1477
ag724
ag674
ag677
aa(lp1519
g1477
ag724
ag674
ag679
aa(lp1520
g1477
ag724
ag674
ag681
aa(lp1521
g1477
ag724
ag674
ag683
aa(lp1522
g1477
ag724
ag685
ag675
aa(lp1523
g1477
ag724
ag685
ag677
aa(lp1524
g1477
ag724
ag685
ag679
aa(lp1525
g1477
ag724
ag685
ag681
aa(lp1526
g1477
ag724
ag685
ag683
aa(lp1527
g1477
ag724
ag691
ag675
aa(lp1528
g1477
ag724
ag691
ag677
aa(lp1529
g1477
ag724
ag691
ag679
aa(lp1530
g1477
ag724
ag691
ag681
aa(lp1531
g1477
ag724
ag691
ag683
aa(lp1532
g1477
ag724
ag697
ag675
aa(lp1533
g1477
ag724
ag697
ag677
aa(lp1534
g1477
ag724
ag697
ag679
aa(lp1535
g1477
ag724
ag697
ag681
aa(lp1536
g1477
ag724
ag697
ag683
aa(lp1537
g1477
ag745
ag674
ag675
aa(lp1538
g1477
ag745
ag674
ag677
aa(lp1539
g1477
ag745
ag674
ag679
aa(lp1540
g1477
ag745
ag674
ag681
aa(lp1541
g1477
ag745
ag674
ag683
aa(lp1542
g1477
ag745
ag685
ag675
aa(lp1543
g1477
ag745
ag685
ag677
aa(lp1544
g1477
ag745
ag685
ag679
aa(lp1545
g1477
ag745
ag685
ag681
aa(lp1546
g1477
ag745
ag685
ag683
aa(lp1547
g1477
ag745
ag691
ag675
aa(lp1548
g1477
ag745
ag691
ag677
aa(lp1549
g1477
ag745
ag691
ag679
aa(lp1550
g1477
ag745
ag691
ag681
aa(lp1551
g1477
ag745
ag691
ag683
aa(lp1552
g1477
ag745
ag697
ag675
aa(lp1553
g1477
ag745
ag697
ag677
aa(lp1554
g1477
ag745
ag697
ag679
aa(lp1555
g1477
ag745
ag697
ag681
aa(lp1556
g1477
ag745
ag697
ag683
aa(lp1557
g1477
ag766
ag674
ag675
aa(lp1558
g1477
ag766
ag674
ag677
aa(lp1559
g1477
ag766
ag674
ag679
aa(lp1560
g1477
ag766
ag674
ag681
aa(lp1561
g1477
ag766
ag674
ag683
aa(lp1562
g1477
ag766
ag685
ag675
aa(lp1563
g1477
ag766
ag685
ag677
aa(lp1564
g1477
ag766
ag685
ag679
aa(lp1565
g1477
ag766
ag685
ag681
aa(lp1566
g1477
ag766
ag685
ag683
aa(lp1567
g1477
ag766
ag691
ag675
aa(lp1568
g1477
ag766
ag691
ag677
aa(lp1569
g1477
ag766
ag691
ag679
aa(lp1570
g1477
ag766
ag691
ag681
aa(lp1571
g1477
ag766
ag691
ag683
aa(lp1572
g1477
ag766
ag697
ag675
aa(lp1573
g1477
ag766
ag697
ag677
aa(lp1574
g1477
ag766
ag697
ag679
aa(lp1575
g1477
ag766
ag697
ag681
aa(lp1576
g1477
ag766
ag697
ag683
aa(lp1577
g1477
ag787
ag674
ag675
aa(lp1578
g1477
ag787
ag674
ag677
aa(lp1579
g1477
ag787
ag674
ag679
aa(lp1580
g1477
ag787
ag674
ag681
aa(lp1581
g1477
ag787
ag674
ag683
aa(lp1582
g1477
ag787
ag685
ag675
aa(lp1583
g1477
ag787
ag685
ag677
aa(lp1584
g1477
ag787
ag685
ag679
aa(lp1585
g1477
ag787
ag685
ag681
aa(lp1586
g1477
ag787
ag685
ag683
aa(lp1587
g1477
ag787
ag691
ag675
aa(lp1588
g1477
ag787
ag691
ag677
aa(lp1589
g1477
ag787
ag691
ag679
aa(lp1590
g1477
ag787
ag691
ag681
aa(lp1591
g1477
ag787
ag691
ag683
aa(lp1592
g1477
ag787
ag697
ag675
aa(lp1593
g1477
ag787
ag697
ag677
aa(lp1594
g1477
ag787
ag697
ag679
aa(lp1595
g1477
ag787
ag697
ag681
aa(lp1596
g1477
ag787
ag697
ag683
aa(lp1597
g1477
ag808
ag674
ag675
aa(lp1598
g1477
ag808
ag674
ag677
aa(lp1599
g1477
ag808
ag674
ag679
aa(lp1600
g1477
ag808
ag674
ag681
aa(lp1601
g1477
ag808
ag674
ag683
aa(lp1602
g1477
ag808
ag685
ag675
aa(lp1603
g1477
ag808
ag685
ag677
aa(lp1604
g1477
ag808
ag685
ag679
aa(lp1605
g1477
ag808
ag685
ag681
aa(lp1606
g1477
ag808
ag685
ag683
aa(lp1607
g1477
ag808
ag691
ag675
aa(lp1608
g1477
ag808
ag691
ag677
aa(lp1609
g1477
ag808
ag691
ag679
aa(lp1610
g1477
ag808
ag691
ag681
aa(lp1611
g1477
ag808
ag691
ag683
aa(lp1612
g1477
ag808
ag697
ag675
aa(lp1613
g1477
ag808
ag697
ag677
aa(lp1614
g1477
ag808
ag697
ag679
aa(lp1615
g1477
ag808
ag697
ag681
aa(lp1616
g1477
ag808
ag697
ag683
aa(lp1617
g1477
ag829
ag674
ag675
aa(lp1618
g1477
ag829
ag674
ag677
aa(lp1619
g1477
ag829
ag674
ag679
aa(lp1620
g1477
ag829
ag674
ag681
aa(lp1621
g1477
ag829
ag674
ag683
aa(lp1622
g1477
ag829
ag685
ag675
aa(lp1623
g1477
ag829
ag685
ag677
aa(lp1624
g1477
ag829
ag685
ag679
aa(lp1625
g1477
ag829
ag685
ag681
aa(lp1626
g1477
ag829
ag685
ag683
aa(lp1627
g1477
ag829
ag691
ag675
aa(lp1628
g1477
ag829
ag691
ag677
aa(lp1629
g1477
ag829
ag691
ag679
aa(lp1630
g1477
ag829
ag691
ag681
aa(lp1631
g1477
ag829
ag691
ag683
aa(lp1632
g1477
ag829
ag697
ag675
aa(lp1633
g1477
ag829
ag697
ag677
aa(lp1634
g1477
ag829
ag697
ag679
aa(lp1635
g1477
ag829
ag697
ag681
aa(lp1636
g1477
ag829
ag697
ag683
aa(lp1637
g1477
ag850
ag674
ag675
aa(lp1638
g1477
ag850
ag674
ag677
aa(lp1639
g1477
ag850
ag674
ag679
aa(lp1640
g1477
ag850
ag674
ag681
aa(lp1641
g1477
ag850
ag674
ag683
aa(lp1642
g1477
ag850
ag685
ag675
aa(lp1643
g1477
ag850
ag685
ag677
aa(lp1644
g1477
ag850
ag685
ag679
aa(lp1645
g1477
ag850
ag685
ag681
aa(lp1646
g1477
ag850
ag685
ag683
aa(lp1647
g1477
ag850
ag691
ag675
aa(lp1648
g1477
ag850
ag691
ag677
aa(lp1649
g1477
ag850
ag691
ag679
aa(lp1650
g1477
ag850
ag691
ag681
aa(lp1651
g1477
ag850
ag691
ag683
aa(lp1652
g1477
ag850
ag697
ag675
aa(lp1653
g1477
ag850
ag697
ag677
aa(lp1654
g1477
ag850
ag697
ag679
aa(lp1655
g1477
ag850
ag697
ag681
aa(lp1656
g1477
ag850
ag697
ag683
aa(lp1657
g1477
ag871
ag674
ag675
aa(lp1658
g1477
ag871
ag674
ag677
aa(lp1659
g1477
ag871
ag674
ag679
aa(lp1660
g1477
ag871
ag674
ag681
aa(lp1661
g1477
ag871
ag674
ag683
aa(lp1662
g1477
ag871
ag685
ag675
aa(lp1663
g1477
ag871
ag685
ag677
aa(lp1664
g1477
ag871
ag685
ag679
aa(lp1665
g1477
ag871
ag685
ag681
aa(lp1666
g1477
ag871
ag685
ag683
aa(lp1667
g1477
ag871
ag691
ag675
aa(lp1668
g1477
ag871
ag691
ag677
aa(lp1669
g1477
ag871
ag691
ag679
aa(lp1670
g1477
ag871
ag691
ag681
aa(lp1671
g1477
ag871
ag691
ag683
aa(lp1672
g1477
ag871
ag697
ag675
aa(lp1673
g1477
ag871
ag697
ag677
aa(lp1674
g1477
ag871
ag697
ag679
aa(lp1675
g1477
ag871
ag697
ag681
aa(lp1676
g1477
ag871
ag697
ag683
aa(lp1677
g1477
ag892
ag674
ag675
aa(lp1678
g1477
ag892
ag674
ag677
aa(lp1679
g1477
ag892
ag674
ag679
aa(lp1680
g1477
ag892
ag674
ag681
aa(lp1681
g1477
ag892
ag674
ag683
aa(lp1682
g1477
ag892
ag685
ag675
aa(lp1683
g1477
ag892
ag685
ag677
aa(lp1684
g1477
ag892
ag685
ag679
aa(lp1685
g1477
ag892
ag685
ag681
aa(lp1686
g1477
ag892
ag685
ag683
aa(lp1687
g1477
ag892
ag691
ag675
aa(lp1688
g1477
ag892
ag691
ag677
aa(lp1689
g1477
ag892
ag691
ag679
aa(lp1690
g1477
ag892
ag691
ag681
aa(lp1691
g1477
ag892
ag691
ag683
aa(lp1692
g1477
ag892
ag697
ag675
aa(lp1693
g1477
ag892
ag697
ag677
aa(lp1694
g1477
ag892
ag697
ag679
aa(lp1695
g1477
ag892
ag697
ag681
aa(lp1696
g1477
ag892
ag697
ag683
aa(lp1697
g1477
ag913
ag674
ag675
aa(lp1698
g1477
ag913
ag674
ag677
aa(lp1699
g1477
ag913
ag674
ag679
aa(lp1700
g1477
ag913
ag674
ag681
aa(lp1701
g1477
ag913
ag674
ag683
aa(lp1702
g1477
ag913
ag685
ag675
aa(lp1703
g1477
ag913
ag685
ag677
aa(lp1704
g1477
ag913
ag685
ag679
aa(lp1705
g1477
ag913
ag685
ag681
aa(lp1706
g1477
ag913
ag685
ag683
aa(lp1707
g1477
ag913
ag691
ag675
aa(lp1708
g1477
ag913
ag691
ag677
aa(lp1709
g1477
ag913
ag691
ag679
aa(lp1710
g1477
ag913
ag691
ag681
aa(lp1711
g1477
ag913
ag691
ag683
aa(lp1712
g1477
ag913
ag697
ag675
aa(lp1713
g1477
ag913
ag697
ag677
aa(lp1714
g1477
ag913
ag697
ag679
aa(lp1715
g1477
ag913
ag697
ag681
aa(lp1716
g1477
ag913
ag697
ag683
aa(lp1717
g1477
ag934
ag674
ag675
aa(lp1718
g1477
ag934
ag674
ag677
aa(lp1719
g1477
ag934
ag674
ag679
aa(lp1720
g1477
ag934
ag674
ag681
aa(lp1721
g1477
ag934
ag674
ag683
aa(lp1722
g1477
ag934
ag685
ag675
aa(lp1723
g1477
ag934
ag685
ag677
aa(lp1724
g1477
ag934
ag685
ag679
aa(lp1725
g1477
ag934
ag685
ag681
aa(lp1726
g1477
ag934
ag685
ag683
aa(lp1727
g1477
ag934
ag691
ag675
aa(lp1728
g1477
ag934
ag691
ag677
aa(lp1729
g1477
ag934
ag691
ag679
aa(lp1730
g1477
ag934
ag691
ag681
aa(lp1731
g1477
ag934
ag691
ag683
aa(lp1732
g1477
ag934
ag697
ag675
aa(lp1733
g1477
ag934
ag697
ag677
aa(lp1734
g1477
ag934
ag697
ag679
aa(lp1735
g1477
ag934
ag697
ag681
aa(lp1736
g1477
ag934
ag697
ag683
aasS'orlando'
p1737
(lp1738
(lp1739
S'Waheeb'
p1740
aS'Bakr'
p1741
aS'Pulse'
p1742
aa(lp1743
g1740
ag1741
aS'nightclub'
p1744
aa(lp1745
g1740
aS'al-Baghdadi'
p1746
ag1742
aa(lp1747
g1740
ag1746
ag1744
aa(lp1748
g1740
aS'Omar'
p1749
ag1742
aa(lp1750
g1740
ag1749
ag1744
aa(lp1751
g1740
aS'Mateen'
p1752
ag1742
aa(lp1753
g1740
ag1752
ag1744
aa(lp1754
g1740
aS'Islamic State of Iraq and the Levant'
p1755
ag1742
aa(lp1756
g1740
ag1755
ag1744
aa(lp1757
g1740
aS'ISIL'
p1758
ag1742
aa(lp1759
g1740
ag1758
ag1744
aasS'vtshooting'
p1760
(lp1761
(lp1762
S'Seung-hui'
p1763
aS'Emily'
p1764
aS'Ambler'
p1765
aa(lp1766
g1763
ag1764
aS'Johnston'
p1767
aa(lp1768
g1763
ag1764
aS'Hall'
p1769
aa(lp1770
g1763
aS'Hilscher'
p1771
ag1765
aa(lp1772
g1763
ag1771
ag1767
aa(lp1773
g1763
ag1771
ag1769
aa(lp1774
S'Seung-hui Cho'
p1775
ag1764
ag1765
aa(lp1776
g1775
ag1764
ag1767
aa(lp1777
g1775
ag1764
ag1769
aa(lp1778
g1775
ag1771
ag1765
aa(lp1779
g1775
ag1771
ag1767
aa(lp1780
g1775
ag1771
ag1769
aa(lp1781
S'Seung-hui'
p1782
aS'Ryan'
p1783
aS'Ambler'
p1784
aa(lp1785
g1782
ag1783
aS'Johnston'
p1786
aa(lp1787
g1782
ag1783
aS'Hall'
p1788
aa(lp1789
g1782
aS'Clark'
p1790
ag1784
aa(lp1791
g1782
ag1790
ag1786
aa(lp1792
g1782
ag1790
ag1788
aa(lp1793
S'Seung-hui Cho'
p1794
ag1783
ag1784
aa(lp1795
g1794
ag1783
ag1786
aa(lp1796
g1794
ag1783
ag1788
aa(lp1797
g1794
ag1790
ag1784
aa(lp1798
g1794
ag1790
ag1786
aa(lp1799
g1794
ag1790
ag1788
aa(lp1800
S'Seung-hui'
p1801
aS'Ambler'
p1802
aS'NBC'
p1803
aS'Norris'
p1804
aa(lp1805
g1801
ag1802
ag1803
aS'Hall'
p1806
aa(lp1807
g1801
aS'Johnston'
p1808
ag1803
ag1804
aa(lp1809
g1801
ag1808
ag1803
ag1806
aa(lp1810
S'Seung-hui Cho'
p1811
ag1802
ag1803
ag1804
aa(lp1812
g1811
ag1802
ag1803
ag1806
aa(lp1813
g1811
ag1808
ag1803
ag1804
aa(lp1814
g1811
ag1808
ag1803
ag1806
aa(lp1815
S'Seung-hui'
p1816
aS'manifesto'
p1817
aS'NBC'
p1818
aa(lp1819
S'Seung-hui Cho'
p1820
ag1817
ag1818
aa(lp1821
S'Seung-hui'
p1822
aS'video'
p1823
aS'NBC'
p1824
aa(lp1825
S'Seung-hui Cho'
p1826
ag1823
ag1824
aa(lp1827
S'Seung-hui'
p1828
aS'Haiyan'
p1829
aS'Hall'
p1830
aa(lp1831
g1828
ag1829
aS'Norris'
p1832
aa(lp1833
g1828
aS'Cheng'
p1834
ag1830
aa(lp1835
g1828
ag1834
ag1832
aa(lp1836
S'Seung-hui Cho'
p1837
ag1829
ag1830
aa(lp1838
g1837
ag1829
ag1832
aa(lp1839
g1837
ag1834
ag1830
aa(lp1840
g1837
ag1834
ag1832
aa(lp1841
S'Seung-hui'
p1842
aS'Jamie'
p1843
aS'Hall'
p1844
aa(lp1845
g1842
ag1843
aS'Norris'
p1846
aa(lp1847
g1842
aS'Bishop'
p1848
ag1844
aa(lp1849
g1842
ag1848
ag1846
aa(lp1850
S'Seung-hui Cho'
p1851
ag1843
ag1844
aa(lp1852
g1851
ag1843
ag1846
aa(lp1853
g1851
ag1848
ag1844
aa(lp1854
g1851
ag1848
ag1846
aa(lp1855
S'Seung-hui'
p1856
aS'Loganathan'
p1857
aS'Hall'
p1858
aa(lp1859
g1856
ag1857
aS'Norris'
p1860
aa(lp1861
S'Seung-hui Cho'
p1862
ag1857
ag1858
aa(lp1863
g1862
ag1857
ag1860
aa(lp1864
S'Seung-hui'
p1865
aS'Jocelyne'
p1866
aS'Norris'
p1867
aa(lp1868
g1865
ag1866
aS'Hall'
p1869
aa(lp1870
g1865
aS'Couture-Nowak'
p1871
ag1867
aa(lp1872
g1865
ag1871
ag1869
aa(lp1873
S'Seung-hui Cho'
p1874
ag1866
ag1867
aa(lp1875
g1874
ag1866
ag1869
aa(lp1876
g1874
ag1871
ag1867
aa(lp1877
g1874
ag1871
ag1869
aa(lp1878
S'Seung-hui'
p1879
aS'Liviu'
p1880
aS'Norris Hall'
p1881
aa(lp1882
g1879
ag1880
aS'Norris'
p1883
aa(lp1884
g1879
aS'Librescu'
p1885
ag1881
aa(lp1886
g1879
ag1885
ag1883
aa(lp1887
S'Seung-hui Cho'
p1888
ag1880
ag1881
aa(lp1889
g1888
ag1880
ag1883
aa(lp1890
g1888
ag1885
ag1881
aa(lp1891
g1888
ag1885
ag1883
aa(lp1892
S'Seung-hui'
p1893
aS'Kevin Granata'
p1894
aS'Norris'
p1895
aa(lp1896
g1893
ag1894
aS'Hall'
p1897
aa(lp1898
g1893
aS'Kevin'
p1899
ag1895
aa(lp1900
g1893
ag1899
ag1897
aa(lp1901
S'Seung-hui Cho'
p1902
ag1894
ag1895
aa(lp1903
g1902
ag1894
ag1897
aa(lp1904
g1902
ag1899
ag1895
aa(lp1905
g1902
ag1899
ag1897
aa(lp1906
S'Anxiety'
p1907
aS'Seung-hui'
p1908
aS'shooting'
p1909
aa(lp1910
g1907
ag1908
aS'attack'
p1911
aa(lp1912
g1907
ag1908
aS'kill'
p1913
aa(lp1914
g1907
ag1908
aS'killing'
p1915
aa(lp1916
g1907
aS'Cho'
p1917
ag1909
aa(lp1918
g1907
ag1917
ag1911
aa(lp1919
g1907
ag1917
ag1913
aa(lp1920
g1907
ag1917
ag1915
aa(lp1921
S'disorder'
p1922
ag1908
ag1909
aa(lp1923
g1922
ag1908
ag1911
aa(lp1924
g1922
ag1908
ag1913
aa(lp1925
g1922
ag1908
ag1915
aa(lp1926
g1922
ag1917
ag1909
aa(lp1927
g1922
ag1917
ag1911
aa(lp1928
g1922
ag1917
ag1913
aa(lp1929
g1922
ag1917
ag1915
aa(lp1930
S'mental'
p1931
ag1908
ag1909
aa(lp1932
g1931
ag1908
ag1911
aa(lp1933
g1931
ag1908
ag1913
aa(lp1934
g1931
ag1908
ag1915
aa(lp1935
g1931
ag1917
ag1909
aa(lp1936
g1931
ag1917
ag1911
aa(lp1937
g1931
ag1917
ag1913
aa(lp1938
g1931
ag1917
ag1915
aa(lp1939
S'ill'
p1940
ag1908
ag1909
aa(lp1941
g1940
ag1908
ag1911
aa(lp1942
g1940
ag1908
ag1913
aa(lp1943
g1940
ag1908
ag1915
aa(lp1944
g1940
ag1917
ag1909
aa(lp1945
g1940
ag1917
ag1911
aa(lp1946
g1940
ag1917
ag1913
aa(lp1947
g1940
ag1917
ag1915
aa(lp1948
S'therapy'
p1949
ag1908
ag1909
aa(lp1950
g1949
ag1908
ag1911
aa(lp1951
g1949
ag1908
ag1913
aa(lp1952
g1949
ag1908
ag1915
aa(lp1953
g1949
ag1917
ag1909
aa(lp1954
g1949
ag1917
ag1911
aa(lp1955
g1949
ag1917
ag1913
aa(lp1956
g1949
ag1917
ag1915
aa(lp1957
S'autism'
p1958
ag1908
ag1909
aa(lp1959
g1958
ag1908
ag1911
aa(lp1960
g1958
ag1908
ag1913
aa(lp1961
g1958
ag1908
ag1915
aa(lp1962
g1958
ag1917
ag1909
aa(lp1963
g1958
ag1917
ag1911
aa(lp1964
g1958
ag1917
ag1913
aa(lp1965
g1958
ag1917
ag1915
aa(lp1966
S'Korea'
p1967
aS'Seung-hui'
p1968
aS'US'
p1969
aa(lp1970
g1967
ag1968
aS'Centreville'
p1971
aa(lp1972
g1967
ag1968
aS'Virginia'
p1973
aa(lp1974
g1967
aS'Seung-hui Cho'
p1975
ag1969
aa(lp1976
g1967
ag1975
ag1971
aa(lp1977
g1967
ag1975
ag1973
aa(lp1978
S'Korean'
p1979
aS'Seung-hui'
p1980
aS'US'
p1981
aa(lp1982
g1979
ag1980
aS'Centreville'
p1983
aa(lp1984
g1979
ag1980
aS'Virginia'
p1985
aa(lp1986
g1979
aS'Seung-hui Cho'
p1987
ag1981
aa(lp1988
g1979
ag1987
ag1983
aa(lp1989
g1979
ag1987
ag1985
aa(lp1990
S'Seung-hui'
p1991
aS"Cho's family"
p1992
aS'victims'
p1993
aa(lp1994
S'Seung-hui Cho'
p1995
ag1992
ag1993
aa(lp1996
S'Seung-hui'
p1997
aS'Sun-Kyung'
p1998
aS'victims'
p1999
aa(lp2000
S'Seung-hui Cho'
p2001
ag1998
ag1999
aa(lp2002
S'shooting'
p2003
aS'National Instant Criminal Background Check System'
p2004
aS'George'
p2005
aa(lp2006
g2003
ag2004
aS'Bush'
p2007
aa(lp2008
g2003
aS'NICS'
p2009
ag2005
aa(lp2010
g2003
ag2009
ag2007
aa(lp2011
S'gun'
p2012
ag2004
ag2005
aa(lp2013
g2012
ag2004
ag2007
aa(lp2014
g2012
ag2009
ag2005
aa(lp2015
g2012
ag2009
ag2007
aa(lp2016
S'shooting'
p2017
aS'FERPA'
p2018
aS'U.S. Department of Education'
p2019
aa(lp2020
g2017
ag2018
aS'ED'
p2021
aa(lp2022
g2017
aS'Family Educational Rights and Privacy Act'
p2023
ag2019
aa(lp2024
g2017
ag2023
ag2021
aa(lp2025
S'Kaine'
p2026
aS'Tom'
p2027
aS'shooting'
p2028
aa(lp2029
g2026
ag2027
aS'gun'
p2030
aa(lp2031
g2026
aS'Ridge'
p2032
ag2028
aa(lp2033
g2026
ag2032
ag2030
aa(lp2034
S'Tim'
p2035
ag2027
ag2028
aa(lp2036
g2035
ag2027
ag2030
aa(lp2037
g2035
ag2032
ag2028
aa(lp2038
g2035
ag2032
ag2030
aa(lp2039
S'shooting'
p2040
aS'National Instant Criminal Background Check System'
p2041
aS'Brady'
p2042
aa(lp2043
g2040
aS'NICS'
p2044
ag2042
aa(lp2045
S'gun'
p2046
ag2041
ag2042
aa(lp2047
g2046
ag2044
ag2042
aa(lp2048
S'shooting'
p2049
aS'National Instant Criminal Background Check System'
p2050
aS'National Rifle Association'
p2051
aa(lp2052
g2049
ag2050
aS'NRA'
p2053
aa(lp2054
g2049
aS'NICS'
p2055
ag2051
aa(lp2056
g2049
ag2055
ag2053
aa(lp2057
S'gun'
p2058
ag2050
ag2051
aa(lp2059
g2058
ag2050
ag2053
aa(lp2060
g2058
ag2055
ag2051
aa(lp2061
g2058
ag2055
ag2053
aasS'bernardino'
p2062
(lp2063
(lp2064
S'Enrique'
p2065
aS'Syed'
p2066
aS'Bernardino'
p2067
aa(lp2068
g2065
ag2066
aS'Inland'
p2069
aa(lp2070
g2065
aS'Rizwan'
p2071
ag2067
aa(lp2072
g2065
ag2071
ag2069
aa(lp2073
g2065
aS'Farook'
p2074
ag2067
aa(lp2075
g2065
ag2074
ag2069
aa(lp2076
g2065
aS'Tashfeen'
p2077
ag2067
aa(lp2078
g2065
ag2077
ag2069
aa(lp2079
g2065
aS'Malik'
p2080
ag2067
aa(lp2081
g2065
ag2080
ag2069
aa(lp2082
S'Marquez'
p2083
ag2066
ag2067
aa(lp2084
g2083
ag2066
ag2069
aa(lp2085
g2083
ag2071
ag2067
aa(lp2086
g2083
ag2071
ag2069
aa(lp2087
g2083
ag2074
ag2067
aa(lp2088
g2083
ag2074
ag2069
aa(lp2089
g2083
ag2077
ag2067
aa(lp2090
g2083
ag2077
ag2069
aa(lp2091
g2083
ag2080
ag2067
aa(lp2092
g2083
ag2080
ag2069
aasS'wall'
p2093
(lp2094
(lp2095
S'Income'
p2096
aS'adbusters'
p2097
aS'Zuccotti'
p2098
aa(lp2099
g2096
ag2097
aS'Park'
p2100
aa(lp2101
g2096
ag2097
aS'new'
p2102
aa(lp2103
g2096
ag2097
aS'york'
p2104
aa(lp2105
g2096
ag2097
aS'new york'
p2106
aa(lp2107
S'inequality'
p2108
ag2097
ag2098
aa(lp2109
g2108
ag2097
ag2100
aa(lp2110
g2108
ag2097
ag2102
aa(lp2111
g2108
ag2097
ag2104
aa(lp2112
g2108
ag2097
ag2106
aasS'church'
p2113
(lp2114
(lp2115
S'White supremacy'
p2116
aS'Dylann'
p2117
aS'Clementa'
p2118
aa(lp2119
g2116
ag2117
aS'Pinckney'
p2120
aa(lp2121
g2116
ag2117
aS'Charleston'
p2122
aa(lp2123
g2116
ag2117
aS'church'
p2124
aa(lp2125
g2116
aS'Roof'
p2126
ag2118
aa(lp2127
g2116
ag2126
ag2120
aa(lp2128
g2116
ag2126
ag2122
aa(lp2129
g2116
ag2126
ag2124
aa(lp2130
S'racism'
p2131
ag2117
ag2118
aa(lp2132
g2131
ag2117
ag2120
aa(lp2133
g2131
ag2117
ag2122
aa(lp2134
g2131
ag2117
ag2124
aa(lp2135
g2131
ag2126
ag2118
aa(lp2136
g2131
ag2126
ag2120
aa(lp2137
g2131
ag2126
ag2122
aa(lp2138
g2131
ag2126
ag2124
aasS'isla'
p2139
(lp2140
(lp2141
S'manifesto'
p2142
aS'Elliot'
p2143
aS'UCSB'
p2144
aa(lp2145
g2142
ag2143
aS'women'
p2146
aa(lp2147
g2142
aS'Rodger'
p2148
ag2144
aa(lp2149
g2142
ag2148
ag2146
aa(lp2150
S'rejected'
p2151
ag2143
ag2144
aa(lp2152
g2151
ag2143
ag2146
aa(lp2153
g2151
ag2148
ag2144
aa(lp2154
g2151
ag2148
ag2146
aa(lp2155
S'women'
p2156
ag2143
ag2144
aa(lp2157
g2156
ag2143
ag2146
aa(lp2158
g2156
ag2148
ag2144
aa(lp2159
g2156
ag2148
ag2146
aa(lp2160
S'retribution'
p2161
ag2143
ag2144
aa(lp2162
g2161
ag2143
ag2146
aa(lp2163
g2161
ag2148
ag2144
aa(lp2164
g2161
ag2148
ag2146
aa(lp2165
S'Misogyny'
p2166
ag2143
ag2144
aa(lp2167
g2166
ag2143
ag2146
aa(lp2168
g2166
ag2148
ag2144
aa(lp2169
g2166
ag2148
ag2146
aasS'911'
p2170
(lp2171
(lp2172
S'Israel'
p2173
aS'Laden'
p2174
aS'Al-qaeda'
p2175
aS'United States'
p2176
aa(lp2177
g2173
ag2174
ag2175
aS'us'
p2178
aa(lp2179
g2173
ag2174
ag2175
aS'u.s.'
p2180
aa(lp2181
S'Saudi'
p2182
aS'Laden'
p2183
aS'Al-qaeda'
p2184
aS'United States'
p2185
aa(lp2186
g2182
ag2183
ag2184
aS'us'
p2187
aa(lp2188
g2182
ag2183
ag2184
aS'u.s.'
p2189
aa(lp2190
S'Arabia'
p2191
ag2183
ag2184
ag2185
aa(lp2192
g2191
ag2183
ag2184
ag2187
aa(lp2193
g2191
ag2183
ag2184
ag2189
aa(lp2194
S'Iraq'
p2195
aS'Osama bin Laden'
p2196
aS'Al-qaeda'
p2197
aS'United States'
p2198
aa(lp2199
g2195
ag2196
ag2197
aS'us'
p2200
aa(lp2201
g2195
ag2196
ag2197
aS'u.s.'
p2202
aa(lp2203
S'Laden'
p2204
aS'Al-qaeda'
p2205
aS'airliners'
p2206
aS'World Trade Center'
p2207
aS'New York'
p2208
aS'World trade center site'
p2209
aa(lp2210
g2204
ag2205
ag2206
ag2207
ag2208
aS'Memorial competition'
p2211
aa(lp2212
g2204
ag2205
aS'American Airlines'
p2213
ag2207
ag2208
ag2209
aa(lp2214
g2204
ag2205
ag2213
ag2207
ag2208
ag2211
aa(lp2215
g2204
ag2205
aS'Flight'
p2216
ag2207
ag2208
ag2209
aa(lp2217
g2204
ag2205
ag2216
ag2207
ag2208
ag2211
aa(lp2218
g2204
ag2205
aS'11'
p2219
ag2207
ag2208
ag2209
aa(lp2220
g2204
ag2205
ag2219
ag2207
ag2208
ag2211
aa(lp2221
g2204
ag2205
aS'United Airlines'
p2222
ag2207
ag2208
ag2209
aa(lp2223
g2204
ag2205
ag2222
ag2207
ag2208
ag2211
aa(lp2224
g2204
ag2205
aS'175'
p2225
ag2207
ag2208
ag2209
aa(lp2226
g2204
ag2205
ag2225
ag2207
ag2208
ag2211
aa(lp2227
S'Laden'
p2228
aS'Al-qaeda'
p2229
aS'airliners'
p2230
aS'Pentagon'
p2231
aS'Arlington'
p2232
aS'pentagon memorial'
p2233
aa(lp2234
g2228
ag2229
ag2230
ag2231
aS'Virginia'
p2235
ag2233
aa(lp2236
g2228
ag2229
aS'American Airlines'
p2237
ag2231
ag2232
ag2233
aa(lp2238
g2228
ag2229
ag2237
ag2231
ag2235
ag2233
aa(lp2239
g2228
ag2229
aS'Flight'
p2240
ag2231
ag2232
ag2233
aa(lp2241
g2228
ag2229
ag2240
ag2231
ag2235
ag2233
aa(lp2242
g2228
ag2229
aS'77'
p2243
ag2231
ag2232
ag2233
aa(lp2244
g2228
ag2229
ag2243
ag2231
ag2235
ag2233
aa(lp2245
S'Laden'
p2246
aS'Al-qaeda'
p2247
aS'airliners'
p2248
aS'Washington'
p2249
aS' Flight 93 Memorial'
p2250
aa(lp2251
g2246
ag2247
ag2248
aS'D.C.'
p2252
ag2250
aa(lp2253
g2246
ag2247
ag2248
aS'capitol'
p2254
ag2250
aa(lp2255
g2246
ag2247
ag2248
aS'white house'
p2256
ag2250
aa(lp2257
g2246
ag2247
aS'United Airlines'
p2258
ag2249
ag2250
aa(lp2259
g2246
ag2247
ag2258
ag2252
ag2250
aa(lp2260
g2246
ag2247
ag2258
ag2254
ag2250
aa(lp2261
g2246
ag2247
ag2258
ag2256
ag2250
aa(lp2262
g2246
ag2247
aS'Flight 93'
p2263
ag2249
ag2250
aa(lp2264
g2246
ag2247
ag2263
ag2252
ag2250
aa(lp2265
g2246
ag2247
ag2263
ag2254
ag2250
aa(lp2266
g2246
ag2247
ag2263
ag2256
ag2250
aa(lp2267
S'Laden'
p2268
aS'Al-qaeda'
p2269
aS'airliners'
p2270
aS'Stonycreek Township'
p2271
aS'Flight 93 Memorial'
p2272
aa(lp2273
g2268
ag2269
aS'United Airlines'
p2274
ag2271
ag2272
aa(lp2275
g2268
ag2269
aS'Flight 93'
p2276
ag2271
ag2272
aa(lp2277
S'Laden'
p2278
aS'Mohammed'
p2279
aS'al-shibh'
p2280
aS'Atta'
p2281
aa(lp2282
S'Laden'
p2283
aS'Atef'
p2284
aS'hijacker'
p2285
aa(lp2286
S'Laden'
p2287
aS'Hazmi'
p2288
aS'hani'
p2289
aa(lp2290
g2287
ag2288
aS'hanjour'
p2291
aa(lp2292
g2287
aS'Nawaf'
p2293
ag2289
aa(lp2294
g2287
ag2293
ag2291
aa(lp2295
g2287
aS'al-hazmi'
p2296
ag2289
aa(lp2297
g2287
ag2296
ag2291
aa(lp2298
S'Laden'
p2299
aS'Mihdhar'
p2300
aS'hani'
p2301
aa(lp2302
g2299
ag2300
aS'hanjour'
p2303
aa(lp2304
S'911'
p2305
aS'Osama bin Laden'
p2306
aS'seal'
p2307
aa(lp2308
g2305
ag2306
aS'team six'
p2309
aa(lp2310
g2305
ag2306
aS'us'
p2311
aa(lp2312
g2305
ag2306
aS'navy'
p2313
aa(lp2314
g2305
aS'Laden'
p2315
ag2307
aa(lp2316
g2305
ag2315
ag2309
aa(lp2317
g2305
ag2315
ag2311
aa(lp2318
g2305
ag2315
ag2313
aa(lp2319
S'9/11'
p2320
ag2306
ag2307
aa(lp2321
g2320
ag2306
ag2309
aa(lp2322
g2320
ag2306
ag2311
aa(lp2323
g2320
ag2306
ag2313
aa(lp2324
g2320
ag2315
ag2307
aa(lp2325
g2320
ag2315
ag2309
aa(lp2326
g2320
ag2315
ag2311
aa(lp2327
g2320
ag2315
ag2313
aa(lp2328
S'September 11 attacks'
p2329
ag2306
ag2307
aa(lp2330
g2329
ag2306
ag2309
aa(lp2331
g2329
ag2306
ag2311
aa(lp2332
g2329
ag2306
ag2313
aa(lp2333
g2329
ag2315
ag2307
aa(lp2334
g2329
ag2315
ag2309
aa(lp2335
g2329
ag2315
ag2311
aa(lp2336
g2329
ag2315
ag2313
aa(lp2337
S'Laden'
p2338
aS'911'
p2339
aS'economic'
p2340
aa(lp2341
g2338
ag2339
aS'world market'
p2342
aa(lp2343
g2338
ag2339
aS'DJIA'
p2344
aa(lp2345
g2338
aS'9/11'
p2346
ag2340
aa(lp2347
g2338
ag2346
ag2342
aa(lp2348
g2338
ag2346
ag2344
aa(lp2349
g2338
aS'September 11 attacks'
p2350
ag2340
aa(lp2351
g2338
ag2350
ag2342
aa(lp2352
g2338
ag2350
ag2344
aa(lp2353
S'Al-qaeda'
p2354
ag2339
ag2340
aa(lp2355
g2354
ag2339
ag2342
aa(lp2356
g2354
ag2339
ag2344
aa(lp2357
g2354
ag2346
ag2340
aa(lp2358
g2354
ag2346
ag2342
aa(lp2359
g2354
ag2346
ag2344
aa(lp2360
g2354
ag2350
ag2340
aa(lp2361
g2354
ag2350
ag2342
aa(lp2362
g2354
ag2350
ag2344
aa(lp2363
S'Laden'
p2364
aS'911'
p2365
aS'afghanistan'
p2366
aa(lp2367
g2364
ag2365
aS'iraq'
p2368
aa(lp2369
g2364
ag2365
aS'war'
p2370
aa(lp2371
g2364
aS'9/11'
p2372
ag2366
aa(lp2373
g2364
ag2372
ag2368
aa(lp2374
g2364
ag2372
ag2370
aa(lp2375
g2364
aS'September 11 attacks'
p2376
ag2366
aa(lp2377
g2364
ag2376
ag2368
aa(lp2378
g2364
ag2376
ag2370
aa(lp2379
S'Al-qaeda'
p2380
ag2365
ag2366
aa(lp2381
g2380
ag2365
ag2368
aa(lp2382
g2380
ag2365
ag2370
aa(lp2383
g2380
ag2372
ag2366
aa(lp2384
g2380
ag2372
ag2368
aa(lp2385
g2380
ag2372
ag2370
aa(lp2386
g2380
ag2376
ag2366
aa(lp2387
g2380
ag2376
ag2368
aa(lp2388
g2380
ag2376
ag2370
aasS'baltimore'
p2389
(lp2390
(lp2391
S'Lieutenant'
p2392
aS'death'
p2393
aS'baltimore'
p2394
aS'acquitted'
p2395
aa(lp2396
g2392
ag2393
ag2394
aS'acquittals'
p2397
aa(lp2398
g2392
ag2393
aS'maryland'
p2399
ag2395
aa(lp2400
g2392
ag2393
ag2399
ag2397
aa(lp2401
g2392
aS'homicide'
p2402
ag2394
ag2395
aa(lp2403
g2392
ag2402
ag2394
ag2397
aa(lp2404
g2392
ag2402
ag2399
ag2395
aa(lp2405
g2392
ag2402
ag2399
ag2397
aa(lp2406
g2392
aS'Freddie'
p2407
ag2394
ag2395
aa(lp2408
g2392
ag2407
ag2394
ag2397
aa(lp2409
g2392
ag2407
ag2399
ag2395
aa(lp2410
g2392
ag2407
ag2399
ag2397
aa(lp2411
g2392
aS'Carlos'
p2412
ag2394
ag2395
aa(lp2413
g2392
ag2412
ag2394
ag2397
aa(lp2414
g2392
ag2412
ag2399
ag2395
aa(lp2415
g2392
ag2412
ag2399
ag2397
aa(lp2416
g2392
aS'Gray'
p2417
ag2394
ag2395
aa(lp2418
g2392
ag2417
ag2394
ag2397
aa(lp2419
g2392
ag2417
ag2399
ag2395
aa(lp2420
g2392
ag2417
ag2399
ag2397
aa(lp2421
S'BrianRice'
p2422
ag2393
ag2394
ag2395
aa(lp2423
g2422
ag2393
ag2394
ag2397
aa(lp2424
g2422
ag2393
ag2399
ag2395
aa(lp2425
g2422
ag2393
ag2399
ag2397
aa(lp2426
g2422
ag2402
ag2394
ag2395
aa(lp2427
g2422
ag2402
ag2394
ag2397
aa(lp2428
g2422
ag2402
ag2399
ag2395
aa(lp2429
g2422
ag2402
ag2399
ag2397
aa(lp2430
g2422
ag2407
ag2394
ag2395
aa(lp2431
g2422
ag2407
ag2394
ag2397
aa(lp2432
g2422
ag2407
ag2399
ag2395
aa(lp2433
g2422
ag2407
ag2399
ag2397
aa(lp2434
g2422
ag2412
ag2394
ag2395
aa(lp2435
g2422
ag2412
ag2394
ag2397
aa(lp2436
g2422
ag2412
ag2399
ag2395
aa(lp2437
g2422
ag2412
ag2399
ag2397
aa(lp2438
g2422
ag2417
ag2394
ag2395
aa(lp2439
g2422
ag2417
ag2394
ag2397
aa(lp2440
g2422
ag2417
ag2399
ag2395
aa(lp2441
g2422
ag2417
ag2399
ag2397
aa(lp2442
S'Sergeant'
p2443
ag2393
ag2394
ag2395
aa(lp2444
g2443
ag2393
ag2394
ag2397
aa(lp2445
g2443
ag2393
ag2399
ag2395
aa(lp2446
g2443
ag2393
ag2399
ag2397
aa(lp2447
g2443
ag2402
ag2394
ag2395
aa(lp2448
g2443
ag2402
ag2394
ag2397
aa(lp2449
g2443
ag2402
ag2399
ag2395
aa(lp2450
g2443
ag2402
ag2399
ag2397
aa(lp2451
g2443
ag2407
ag2394
ag2395
aa(lp2452
g2443
ag2407
ag2394
ag2397
aa(lp2453
g2443
ag2407
ag2399
ag2395
aa(lp2454
g2443
ag2407
ag2399
ag2397
aa(lp2455
g2443
ag2412
ag2394
ag2395
aa(lp2456
g2443
ag2412
ag2394
ag2397
aa(lp2457
g2443
ag2412
ag2399
ag2395
aa(lp2458
g2443
ag2412
ag2399
ag2397
aa(lp2459
g2443
ag2417
ag2394
ag2395
aa(lp2460
g2443
ag2417
ag2394
ag2397
aa(lp2461
g2443
ag2417
ag2399
ag2395
aa(lp2462
g2443
ag2417
ag2399
ag2397
aa(lp2463
S'Alicia'
p2464
ag2393
ag2394
ag2395
aa(lp2465
g2464
ag2393
ag2394
ag2397
aa(lp2466
g2464
ag2393
ag2399
ag2395
aa(lp2467
g2464
ag2393
ag2399
ag2397
aa(lp2468
g2464
ag2402
ag2394
ag2395
aa(lp2469
g2464
ag2402
ag2394
ag2397
aa(lp2470
g2464
ag2402
ag2399
ag2395
aa(lp2471
g2464
ag2402
ag2399
ag2397
aa(lp2472
g2464
ag2407
ag2394
ag2395
aa(lp2473
g2464
ag2407
ag2394
ag2397
aa(lp2474
g2464
ag2407
ag2399
ag2395
aa(lp2475
g2464
ag2407
ag2399
ag2397
aa(lp2476
g2464
ag2412
ag2394
ag2395
aa(lp2477
g2464
ag2412
ag2394
ag2397
aa(lp2478
g2464
ag2412
ag2399
ag2395
aa(lp2479
g2464
ag2412
ag2399
ag2397
aa(lp2480
g2464
ag2417
ag2394
ag2395
aa(lp2481
g2464
ag2417
ag2394
ag2397
aa(lp2482
g2464
ag2417
ag2399
ag2395
aa(lp2483
g2464
ag2417
ag2399
ag2397
aa(lp2484
S'White'
p2485
ag2393
ag2394
ag2395
aa(lp2486
g2485
ag2393
ag2394
ag2397
aa(lp2487
g2485
ag2393
ag2399
ag2395
aa(lp2488
g2485
ag2393
ag2399
ag2397
aa(lp2489
g2485
ag2402
ag2394
ag2395
aa(lp2490
g2485
ag2402
ag2394
ag2397
aa(lp2491
g2485
ag2402
ag2399
ag2395
aa(lp2492
g2485
ag2402
ag2399
ag2397
aa(lp2493
g2485
ag2407
ag2394
ag2395
aa(lp2494
g2485
ag2407
ag2394
ag2397
aa(lp2495
g2485
ag2407
ag2399
ag2395
aa(lp2496
g2485
ag2407
ag2399
ag2397
aa(lp2497
g2485
ag2412
ag2394
ag2395
aa(lp2498
g2485
ag2412
ag2394
ag2397
aa(lp2499
g2485
ag2412
ag2399
ag2395
aa(lp2500
g2485
ag2412
ag2399
ag2397
aa(lp2501
g2485
ag2417
ag2394
ag2395
aa(lp2502
g2485
ag2417
ag2394
ag2397
aa(lp2503
g2485
ag2417
ag2399
ag2395
aa(lp2504
g2485
ag2417
ag2399
ag2397
aa(lp2505
S'William'
p2506
ag2393
ag2394
ag2395
aa(lp2507
g2506
ag2393
ag2394
ag2397
aa(lp2508
g2506
ag2393
ag2399
ag2395
aa(lp2509
g2506
ag2393
ag2399
ag2397
aa(lp2510
g2506
ag2402
ag2394
ag2395
aa(lp2511
g2506
ag2402
ag2394
ag2397
aa(lp2512
g2506
ag2402
ag2399
ag2395
aa(lp2513
g2506
ag2402
ag2399
ag2397
aa(lp2514
g2506
ag2407
ag2394
ag2395
aa(lp2515
g2506
ag2407
ag2394
ag2397
aa(lp2516
g2506
ag2407
ag2399
ag2395
aa(lp2517
g2506
ag2407
ag2399
ag2397
aa(lp2518
g2506
ag2412
ag2394
ag2395
aa(lp2519
g2506
ag2412
ag2394
ag2397
aa(lp2520
g2506
ag2412
ag2399
ag2395
aa(lp2521
g2506
ag2412
ag2399
ag2397
aa(lp2522
g2506
ag2417
ag2394
ag2395
aa(lp2523
g2506
ag2417
ag2394
ag2397
aa(lp2524
g2506
ag2417
ag2399
ag2395
aa(lp2525
g2506
ag2417
ag2399
ag2397
aa(lp2526
S'Porter'
p2527
ag2393
ag2394
ag2395
aa(lp2528
g2527
ag2393
ag2394
ag2397
aa(lp2529
g2527
ag2393
ag2399
ag2395
aa(lp2530
g2527
ag2393
ag2399
ag2397
aa(lp2531
g2527
ag2402
ag2394
ag2395
aa(lp2532
g2527
ag2402
ag2394
ag2397
aa(lp2533
g2527
ag2402
ag2399
ag2395
aa(lp2534
g2527
ag2402
ag2399
ag2397
aa(lp2535
g2527
ag2407
ag2394
ag2395
aa(lp2536
g2527
ag2407
ag2394
ag2397
aa(lp2537
g2527
ag2407
ag2399
ag2395
aa(lp2538
g2527
ag2407
ag2399
ag2397
aa(lp2539
g2527
ag2412
ag2394
ag2395
aa(lp2540
g2527
ag2412
ag2394
ag2397
aa(lp2541
g2527
ag2412
ag2399
ag2395
aa(lp2542
g2527
ag2412
ag2399
ag2397
aa(lp2543
g2527
ag2417
ag2394
ag2395
aa(lp2544
g2527
ag2417
ag2394
ag2397
aa(lp2545
g2527
ag2417
ag2399
ag2395
aa(lp2546
g2527
ag2417
ag2399
ag2397
aa(lp2547
S'Garrett'
p2548
ag2393
ag2394
ag2395
aa(lp2549
g2548
ag2393
ag2394
ag2397
aa(lp2550
g2548
ag2393
ag2399
ag2395
aa(lp2551
g2548
ag2393
ag2399
ag2397
aa(lp2552
g2548
ag2402
ag2394
ag2395
aa(lp2553
g2548
ag2402
ag2394
ag2397
aa(lp2554
g2548
ag2402
ag2399
ag2395
aa(lp2555
g2548
ag2402
ag2399
ag2397
aa(lp2556
g2548
ag2407
ag2394
ag2395
aa(lp2557
g2548
ag2407
ag2394
ag2397
aa(lp2558
g2548
ag2407
ag2399
ag2395
aa(lp2559
g2548
ag2407
ag2399
ag2397
aa(lp2560
g2548
ag2412
ag2394
ag2395
aa(lp2561
g2548
ag2412
ag2394
ag2397
aa(lp2562
g2548
ag2412
ag2399
ag2395
aa(lp2563
g2548
ag2412
ag2399
ag2397
aa(lp2564
g2548
ag2417
ag2394
ag2395
aa(lp2565
g2548
ag2417
ag2394
ag2397
aa(lp2566
g2548
ag2417
ag2399
ag2395
aa(lp2567
g2548
ag2417
ag2399
ag2397
aa(lp2568
S'Miller'
p2569
ag2393
ag2394
ag2395
aa(lp2570
g2569
ag2393
ag2394
ag2397
aa(lp2571
g2569
ag2393
ag2399
ag2395
aa(lp2572
g2569
ag2393
ag2399
ag2397
aa(lp2573
g2569
ag2402
ag2394
ag2395
aa(lp2574
g2569
ag2402
ag2394
ag2397
aa(lp2575
g2569
ag2402
ag2399
ag2395
aa(lp2576
g2569
ag2402
ag2399
ag2397
aa(lp2577
g2569
ag2407
ag2394
ag2395
aa(lp2578
g2569
ag2407
ag2394
ag2397
aa(lp2579
g2569
ag2407
ag2399
ag2395
aa(lp2580
g2569
ag2407
ag2399
ag2397
aa(lp2581
g2569
ag2412
ag2394
ag2395
aa(lp2582
g2569
ag2412
ag2394
ag2397
aa(lp2583
g2569
ag2412
ag2399
ag2395
aa(lp2584
g2569
ag2412
ag2399
ag2397
aa(lp2585
g2569
ag2417
ag2394
ag2395
aa(lp2586
g2569
ag2417
ag2394
ag2397
aa(lp2587
g2569
ag2417
ag2399
ag2395
aa(lp2588
g2569
ag2417
ag2399
ag2397
aa(lp2589
S'Edward'
p2590
ag2393
ag2394
ag2395
aa(lp2591
g2590
ag2393
ag2394
ag2397
aa(lp2592
g2590
ag2393
ag2399
ag2395
aa(lp2593
g2590
ag2393
ag2399
ag2397
aa(lp2594
g2590
ag2402
ag2394
ag2395
aa(lp2595
g2590
ag2402
ag2394
ag2397
aa(lp2596
g2590
ag2402
ag2399
ag2395
aa(lp2597
g2590
ag2402
ag2399
ag2397
aa(lp2598
g2590
ag2407
ag2394
ag2395
aa(lp2599
g2590
ag2407
ag2394
ag2397
aa(lp2600
g2590
ag2407
ag2399
ag2395
aa(lp2601
g2590
ag2407
ag2399
ag2397
aa(lp2602
g2590
ag2412
ag2394
ag2395
aa(lp2603
g2590
ag2412
ag2394
ag2397
aa(lp2604
g2590
ag2412
ag2399
ag2395
aa(lp2605
g2590
ag2412
ag2399
ag2397
aa(lp2606
g2590
ag2417
ag2394
ag2395
aa(lp2607
g2590
ag2417
ag2394
ag2397
aa(lp2608
g2590
ag2417
ag2399
ag2395
aa(lp2609
g2590
ag2417
ag2399
ag2397
aa(lp2610
S'Nero'
p2611
ag2393
ag2394
ag2395
aa(lp2612
g2611
ag2393
ag2394
ag2397
aa(lp2613
g2611
ag2393
ag2399
ag2395
aa(lp2614
g2611
ag2393
ag2399
ag2397
aa(lp2615
g2611
ag2402
ag2394
ag2395
aa(lp2616
g2611
ag2402
ag2394
ag2397
aa(lp2617
g2611
ag2402
ag2399
ag2395
aa(lp2618
g2611
ag2402
ag2399
ag2397
aa(lp2619
g2611
ag2407
ag2394
ag2395
aa(lp2620
g2611
ag2407
ag2394
ag2397
aa(lp2621
g2611
ag2407
ag2399
ag2395
aa(lp2622
g2611
ag2407
ag2399
ag2397
aa(lp2623
g2611
ag2412
ag2394
ag2395
aa(lp2624
g2611
ag2412
ag2394
ag2397
aa(lp2625
g2611
ag2412
ag2399
ag2395
aa(lp2626
g2611
ag2412
ag2399
ag2397
aa(lp2627
g2611
ag2417
ag2394
ag2395
aa(lp2628
g2611
ag2417
ag2394
ag2397
aa(lp2629
g2611
ag2417
ag2399
ag2395
aa(lp2630
g2611
ag2417
ag2399
ag2397
aa(lp2631
S'Caesar'
p2632
ag2393
ag2394
ag2395
aa(lp2633
g2632
ag2393
ag2394
ag2397
aa(lp2634
g2632
ag2393
ag2399
ag2395
aa(lp2635
g2632
ag2393
ag2399
ag2397
aa(lp2636
g2632
ag2402
ag2394
ag2395
aa(lp2637
g2632
ag2402
ag2394
ag2397
aa(lp2638
g2632
ag2402
ag2399
ag2395
aa(lp2639
g2632
ag2402
ag2399
ag2397
aa(lp2640
g2632
ag2407
ag2394
ag2395
aa(lp2641
g2632
ag2407
ag2394
ag2397
aa(lp2642
g2632
ag2407
ag2399
ag2395
aa(lp2643
g2632
ag2407
ag2399
ag2397
aa(lp2644
g2632
ag2412
ag2394
ag2395
aa(lp2645
g2632
ag2412
ag2394
ag2397
aa(lp2646
g2632
ag2412
ag2399
ag2395
aa(lp2647
g2632
ag2412
ag2399
ag2397
aa(lp2648
g2632
ag2417
ag2394
ag2395
aa(lp2649
g2632
ag2417
ag2394
ag2397
aa(lp2650
g2632
ag2417
ag2399
ag2395
aa(lp2651
g2632
ag2417
ag2399
ag2397
aa(lp2652
S'Goodson'
p2653
ag2393
ag2394
ag2395
aa(lp2654
g2653
ag2393
ag2394
ag2397
aa(lp2655
g2653
ag2393
ag2399
ag2395
aa(lp2656
g2653
ag2393
ag2399
ag2397
aa(lp2657
g2653
ag2402
ag2394
ag2395
aa(lp2658
g2653
ag2402
ag2394
ag2397
aa(lp2659
g2653
ag2402
ag2399
ag2395
aa(lp2660
g2653
ag2402
ag2399
ag2397
aa(lp2661
g2653
ag2407
ag2394
ag2395
aa(lp2662
g2653
ag2407
ag2394
ag2397
aa(lp2663
g2653
ag2407
ag2399
ag2395
aa(lp2664
g2653
ag2407
ag2399
ag2397
aa(lp2665
g2653
ag2412
ag2394
ag2395
aa(lp2666
g2653
ag2412
ag2394
ag2397
aa(lp2667
g2653
ag2412
ag2399
ag2395
aa(lp2668
g2653
ag2412
ag2399
ag2397
aa(lp2669
g2653
ag2417
ag2394
ag2395
aa(lp2670
g2653
ag2417
ag2394
ag2397
aa(lp2671
g2653
ag2417
ag2399
ag2395
aa(lp2672
g2653
ag2417
ag2399
ag2397
aas.