(dp1
S'paris'
p2
(lp3
(lp4
S'Op\xc3\xa9ration'
p5
aS'Syria'
p6
aS'Islamic State of Iraq and the Levant'
p7
aS'Paris'
p8
aa(lp9
g5
ag6
ag7
aS'Saint-Denis'
p10
aa(lp11
g5
ag6
ag7
aS'Stade'
p12
aa(lp13
g5
ag6
ag7
aS'Rues'
p14
aa(lp15
g5
ag6
ag7
aS'Bichat'
p16
aa(lp17
g5
ag6
ag7
aS'Fontaine-au-Roi'
p18
aa(lp19
g5
ag6
ag7
aS'Charonne'
p20
aa(lp21
g5
ag6
ag7
aS'Voltaire'
p22
aa(lp23
g5
ag6
ag7
aS'Alibert'
p24
aa(lp25
g5
ag6
ag7
aS'Bataclan'
p26
aa(lp27
g5
ag6
ag7
aS'theatre'
p28
aa(lp29
g5
ag6
aS'ISIL'
p30
ag8
aa(lp31
g5
ag6
ag30
ag10
aa(lp32
g5
ag6
ag30
ag12
aa(lp33
g5
ag6
ag30
ag14
aa(lp34
g5
ag6
ag30
ag16
aa(lp35
g5
ag6
ag30
ag18
aa(lp36
g5
ag6
ag30
ag20
aa(lp37
g5
ag6
ag30
ag22
aa(lp38
g5
ag6
ag30
ag24
aa(lp39
g5
ag6
ag30
ag26
aa(lp40
g5
ag6
ag30
ag28
aa(lp41
g5
ag6
aS'Abdelhamid'
p42
ag8
aa(lp43
g5
ag6
ag42
ag10
aa(lp44
g5
ag6
ag42
ag12
aa(lp45
g5
ag6
ag42
ag14
aa(lp46
g5
ag6
ag42
ag16
aa(lp47
g5
ag6
ag42
ag18
aa(lp48
g5
ag6
ag42
ag20
aa(lp49
g5
ag6
ag42
ag22
aa(lp50
g5
ag6
ag42
ag24
aa(lp51
g5
ag6
ag42
ag26
aa(lp52
g5
ag6
ag42
ag28
aa(lp53
g5
ag6
aS'Abaaoud'
p54
ag8
aa(lp55
g5
ag6
ag54
ag10
aa(lp56
g5
ag6
ag54
ag12
aa(lp57
g5
ag6
ag54
ag14
aa(lp58
g5
ag6
ag54
ag16
aa(lp59
g5
ag6
ag54
ag18
aa(lp60
g5
ag6
ag54
ag20
aa(lp61
g5
ag6
ag54
ag22
aa(lp62
g5
ag6
ag54
ag24
aa(lp63
g5
ag6
ag54
ag26
aa(lp64
g5
ag6
ag54
ag28
aa(lp65
g5
aS'Iraq'
p66
ag7
ag8
aa(lp67
g5
ag66
ag7
ag10
aa(lp68
g5
ag66
ag7
ag12
aa(lp69
g5
ag66
ag7
ag14
aa(lp70
g5
ag66
ag7
ag16
aa(lp71
g5
ag66
ag7
ag18
aa(lp72
g5
ag66
ag7
ag20
aa(lp73
g5
ag66
ag7
ag22
aa(lp74
g5
ag66
ag7
ag24
aa(lp75
g5
ag66
ag7
ag26
aa(lp76
g5
ag66
ag7
ag28
aa(lp77
g5
ag66
ag30
ag8
aa(lp78
g5
ag66
ag30
ag10
aa(lp79
g5
ag66
ag30
ag12
aa(lp80
g5
ag66
ag30
ag14
aa(lp81
g5
ag66
ag30
ag16
aa(lp82
g5
ag66
ag30
ag18
aa(lp83
g5
ag66
ag30
ag20
aa(lp84
g5
ag66
ag30
ag22
aa(lp85
g5
ag66
ag30
ag24
aa(lp86
g5
ag66
ag30
ag26
aa(lp87
g5
ag66
ag30
ag28
aa(lp88
g5
ag66
ag42
ag8
aa(lp89
g5
ag66
ag42
ag10
aa(lp90
g5
ag66
ag42
ag12
aa(lp91
g5
ag66
ag42
ag14
aa(lp92
g5
ag66
ag42
ag16
aa(lp93
g5
ag66
ag42
ag18
aa(lp94
g5
ag66
ag42
ag20
aa(lp95
g5
ag66
ag42
ag22
aa(lp96
g5
ag66
ag42
ag24
aa(lp97
g5
ag66
ag42
ag26
aa(lp98
g5
ag66
ag42
ag28
aa(lp99
g5
ag66
ag54
ag8
aa(lp100
g5
ag66
ag54
ag10
aa(lp101
g5
ag66
ag54
ag12
aa(lp102
g5
ag66
ag54
ag14
aa(lp103
g5
ag66
ag54
ag16
aa(lp104
g5
ag66
ag54
ag18
aa(lp105
g5
ag66
ag54
ag20
aa(lp106
g5
ag66
ag54
ag22
aa(lp107
g5
ag66
ag54
ag24
aa(lp108
g5
ag66
ag54
ag26
aa(lp109
g5
ag66
ag54
ag28
aa(lp110
S'Chammal'
p111
ag6
ag7
ag8
aa(lp112
g111
ag6
ag7
ag10
aa(lp113
g111
ag6
ag7
ag12
aa(lp114
g111
ag6
ag7
ag14
aa(lp115
g111
ag6
ag7
ag16
aa(lp116
g111
ag6
ag7
ag18
aa(lp117
g111
ag6
ag7
ag20
aa(lp118
g111
ag6
ag7
ag22
aa(lp119
g111
ag6
ag7
ag24
aa(lp120
g111
ag6
ag7
ag26
aa(lp121
g111
ag6
ag7
ag28
aa(lp122
g111
ag6
ag30
ag8
aa(lp123
g111
ag6
ag30
ag10
aa(lp124
g111
ag6
ag30
ag12
aa(lp125
g111
ag6
ag30
ag14
aa(lp126
g111
ag6
ag30
ag16
aa(lp127
g111
ag6
ag30
ag18
aa(lp128
g111
ag6
ag30
ag20
aa(lp129
g111
ag6
ag30
ag22
aa(lp130
g111
ag6
ag30
ag24
aa(lp131
g111
ag6
ag30
ag26
aa(lp132
g111
ag6
ag30
ag28
aa(lp133
g111
ag6
ag42
ag8
aa(lp134
g111
ag6
ag42
ag10
aa(lp135
g111
ag6
ag42
ag12
aa(lp136
g111
ag6
ag42
ag14
aa(lp137
g111
ag6
ag42
ag16
aa(lp138
g111
ag6
ag42
ag18
aa(lp139
g111
ag6
ag42
ag20
aa(lp140
g111
ag6
ag42
ag22
aa(lp141
g111
ag6
ag42
ag24
aa(lp142
g111
ag6
ag42
ag26
aa(lp143
g111
ag6
ag42
ag28
aa(lp144
g111
ag6
ag54
ag8
aa(lp145
g111
ag6
ag54
ag10
aa(lp146
g111
ag6
ag54
ag12
aa(lp147
g111
ag6
ag54
ag14
aa(lp148
g111
ag6
ag54
ag16
aa(lp149
g111
ag6
ag54
ag18
aa(lp150
g111
ag6
ag54
ag20
aa(lp151
g111
ag6
ag54
ag22
aa(lp152
g111
ag6
ag54
ag24
aa(lp153
g111
ag6
ag54
ag26
aa(lp154
g111
ag6
ag54
ag28
aa(lp155
g111
ag66
ag7
ag8
aa(lp156
g111
ag66
ag7
ag10
aa(lp157
g111
ag66
ag7
ag12
aa(lp158
g111
ag66
ag7
ag14
aa(lp159
g111
ag66
ag7
ag16
aa(lp160
g111
ag66
ag7
ag18
aa(lp161
g111
ag66
ag7
ag20
aa(lp162
g111
ag66
ag7
ag22
aa(lp163
g111
ag66
ag7
ag24
aa(lp164
g111
ag66
ag7
ag26
aa(lp165
g111
ag66
ag7
ag28
aa(lp166
g111
ag66
ag30
ag8
aa(lp167
g111
ag66
ag30
ag10
aa(lp168
g111
ag66
ag30
ag12
aa(lp169
g111
ag66
ag30
ag14
aa(lp170
g111
ag66
ag30
ag16
aa(lp171
g111
ag66
ag30
ag18
aa(lp172
g111
ag66
ag30
ag20
aa(lp173
g111
ag66
ag30
ag22
aa(lp174
g111
ag66
ag30
ag24
aa(lp175
g111
ag66
ag30
ag26
aa(lp176
g111
ag66
ag30
ag28
aa(lp177
g111
ag66
ag42
ag8
aa(lp178
g111
ag66
ag42
ag10
aa(lp179
g111
ag66
ag42
ag12
aa(lp180
g111
ag66
ag42
ag14
aa(lp181
g111
ag66
ag42
ag16
aa(lp182
g111
ag66
ag42
ag18
aa(lp183
g111
ag66
ag42
ag20
aa(lp184
g111
ag66
ag42
ag22
aa(lp185
g111
ag66
ag42
ag24
aa(lp186
g111
ag66
ag42
ag26
aa(lp187
g111
ag66
ag42
ag28
aa(lp188
g111
ag66
ag54
ag8
aa(lp189
g111
ag66
ag54
ag10
aa(lp190
g111
ag66
ag54
ag12
aa(lp191
g111
ag66
ag54
ag14
aa(lp192
g111
ag66
ag54
ag16
aa(lp193
g111
ag66
ag54
ag18
aa(lp194
g111
ag66
ag54
ag20
aa(lp195
g111
ag66
ag54
ag22
aa(lp196
g111
ag66
ag54
ag24
aa(lp197
g111
ag66
ag54
ag26
aa(lp198
g111
ag66
ag54
ag28
aasS'charlie'
p199
(lp200
(lp201
S'satirical'
p202
aS'Al-Qaeda'
p203
aS'Charlie'
p204
aS'Vigipirate'
p205
aa(lp206
g202
ag203
ag204
aS'Je'
p207
aa(lp208
g202
ag203
ag204
aS'suis'
p209
aa(lp210
g202
ag203
ag204
aS'Charlie'
p211
aa(lp212
g202
ag203
ag204
aS'jesuischarlie'
p213
aa(lp214
g202
ag203
ag204
aS'R\xc3\xa9publique'
p215
aa(lp216
g202
ag203
aS'Hebdo'
p217
ag205
aa(lp218
g202
ag203
ag217
ag207
aa(lp219
g202
ag203
ag217
ag209
aa(lp220
g202
ag203
ag217
ag211
aa(lp221
g202
ag203
ag217
ag213
aa(lp222
g202
ag203
ag217
ag215
aa(lp223
g202
aS'AQAP'
p224
ag204
ag205
aa(lp225
g202
ag224
ag204
ag207
aa(lp226
g202
ag224
ag204
ag209
aa(lp227
g202
ag224
ag204
ag211
aa(lp228
g202
ag224
ag204
ag213
aa(lp229
g202
ag224
ag204
ag215
aa(lp230
g202
ag224
ag217
ag205
aa(lp231
g202
ag224
ag217
ag207
aa(lp232
g202
ag224
ag217
ag209
aa(lp233
g202
ag224
ag217
ag211
aa(lp234
g202
ag224
ag217
ag213
aa(lp235
g202
ag224
ag217
ag215
aa(lp236
g202
aS'Sa\xc3\xafd'
p237
ag204
ag205
aa(lp238
g202
ag237
ag204
ag207
aa(lp239
g202
ag237
ag204
ag209
aa(lp240
g202
ag237
ag204
ag211
aa(lp241
g202
ag237
ag204
ag213
aa(lp242
g202
ag237
ag204
ag215
aa(lp243
g202
ag237
ag217
ag205
aa(lp244
g202
ag237
ag217
ag207
aa(lp245
g202
ag237
ag217
ag209
aa(lp246
g202
ag237
ag217
ag211
aa(lp247
g202
ag237
ag217
ag213
aa(lp248
g202
ag237
ag217
ag215
aa(lp249
g202
aS'Ch\xc3\xa9rif'
p250
ag204
ag205
aa(lp251
g202
ag250
ag204
ag207
aa(lp252
g202
ag250
ag204
ag209
aa(lp253
g202
ag250
ag204
ag211
aa(lp254
g202
ag250
ag204
ag213
aa(lp255
g202
ag250
ag204
ag215
aa(lp256
g202
ag250
ag217
ag205
aa(lp257
g202
ag250
ag217
ag207
aa(lp258
g202
ag250
ag217
ag209
aa(lp259
g202
ag250
ag217
ag211
aa(lp260
g202
ag250
ag217
ag213
aa(lp261
g202
ag250
ag217
ag215
aa(lp262
g202
aS'Kouachi'
p263
ag204
ag205
aa(lp264
g202
ag263
ag204
ag207
aa(lp265
g202
ag263
ag204
ag209
aa(lp266
g202
ag263
ag204
ag211
aa(lp267
g202
ag263
ag204
ag213
aa(lp268
g202
ag263
ag204
ag215
aa(lp269
g202
ag263
ag217
ag205
aa(lp270
g202
ag263
ag217
ag207
aa(lp271
g202
ag263
ag217
ag209
aa(lp272
g202
ag263
ag217
ag211
aa(lp273
g202
ag263
ag217
ag213
aa(lp274
g202
ag263
ag217
ag215
aa(lp275
S'Muhammad'
p276
ag203
ag204
ag205
aa(lp277
g276
ag203
ag204
ag207
aa(lp278
g276
ag203
ag204
ag209
aa(lp279
g276
ag203
ag204
ag211
aa(lp280
g276
ag203
ag204
ag213
aa(lp281
g276
ag203
ag204
ag215
aa(lp282
g276
ag203
ag217
ag205
aa(lp283
g276
ag203
ag217
ag207
aa(lp284
g276
ag203
ag217
ag209
aa(lp285
g276
ag203
ag217
ag211
aa(lp286
g276
ag203
ag217
ag213
aa(lp287
g276
ag203
ag217
ag215
aa(lp288
g276
ag224
ag204
ag205
aa(lp289
g276
ag224
ag204
ag207
aa(lp290
g276
ag224
ag204
ag209
aa(lp291
g276
ag224
ag204
ag211
aa(lp292
g276
ag224
ag204
ag213
aa(lp293
g276
ag224
ag204
ag215
aa(lp294
g276
ag224
ag217
ag205
aa(lp295
g276
ag224
ag217
ag207
aa(lp296
g276
ag224
ag217
ag209
aa(lp297
g276
ag224
ag217
ag211
aa(lp298
g276
ag224
ag217
ag213
aa(lp299
g276
ag224
ag217
ag215
aa(lp300
g276
ag237
ag204
ag205
aa(lp301
g276
ag237
ag204
ag207
aa(lp302
g276
ag237
ag204
ag209
aa(lp303
g276
ag237
ag204
ag211
aa(lp304
g276
ag237
ag204
ag213
aa(lp305
g276
ag237
ag204
ag215
aa(lp306
g276
ag237
ag217
ag205
aa(lp307
g276
ag237
ag217
ag207
aa(lp308
g276
ag237
ag217
ag209
aa(lp309
g276
ag237
ag217
ag211
aa(lp310
g276
ag237
ag217
ag213
aa(lp311
g276
ag237
ag217
ag215
aa(lp312
g276
ag250
ag204
ag205
aa(lp313
g276
ag250
ag204
ag207
aa(lp314
g276
ag250
ag204
ag209
aa(lp315
g276
ag250
ag204
ag211
aa(lp316
g276
ag250
ag204
ag213
aa(lp317
g276
ag250
ag204
ag215
aa(lp318
g276
ag250
ag217
ag205
aa(lp319
g276
ag250
ag217
ag207
aa(lp320
g276
ag250
ag217
ag209
aa(lp321
g276
ag250
ag217
ag211
aa(lp322
g276
ag250
ag217
ag213
aa(lp323
g276
ag250
ag217
ag215
aa(lp324
g276
ag263
ag204
ag205
aa(lp325
g276
ag263
ag204
ag207
aa(lp326
g276
ag263
ag204
ag209
aa(lp327
g276
ag263
ag204
ag211
aa(lp328
g276
ag263
ag204
ag213
aa(lp329
g276
ag263
ag204
ag215
aa(lp330
g276
ag263
ag217
ag205
aa(lp331
g276
ag263
ag217
ag207
aa(lp332
g276
ag263
ag217
ag209
aa(lp333
g276
ag263
ag217
ag211
aa(lp334
g276
ag263
ag217
ag213
aa(lp335
g276
ag263
ag217
ag215
aa(lp336
S'Al-Qaeda'
p337
aS'Sa\xc3\xafd'
p338
aS'Charlie'
p339
aa(lp340
g337
ag338
aS'Hebdo'
p341
aa(lp342
g337
aS'Ch\xc3\xa9rif'
p343
ag339
aa(lp344
g337
ag343
ag341
aa(lp345
g337
aS'Kouachi'
p346
ag339
aa(lp347
g337
ag346
ag341
aa(lp348
S'Anwar'
p349
ag338
ag339
aa(lp350
g349
ag338
ag341
aa(lp351
g349
ag343
ag339
aa(lp352
g349
ag343
ag341
aa(lp353
g349
ag346
ag339
aa(lp354
g349
ag346
ag341
aa(lp355
S'al-Awlaki'
p356
ag338
ag339
aa(lp357
g356
ag338
ag341
aa(lp358
g356
ag343
ag339
aa(lp359
g356
ag343
ag341
aa(lp360
g356
ag346
ag339
aa(lp361
g356
ag346
ag341
aa(lp362
S'AQAP'
p363
ag338
ag339
aa(lp364
g363
ag338
ag341
aa(lp365
g363
ag343
ag339
aa(lp366
g363
ag343
ag341
aa(lp367
g363
ag346
ag339
aa(lp368
g363
ag346
ag341
aasS'martin'
p369
(lp370
(lp371
S'Asa'
p372
aS'big six'
p373
aS'Washington'
p374
aS'civil'
p375
aa(lp376
g372
ag373
ag374
aS'rights'
p377
aa(lp378
g372
ag373
ag374
aS'1964'
p379
aa(lp380
g372
ag373
ag374
aS'1965'
p381
aa(lp382
g372
ag373
ag374
aS'act'
p383
aa(lp384
g372
ag373
aS'Monument'
p385
ag375
aa(lp386
g372
ag373
ag385
ag377
aa(lp387
g372
ag373
ag385
ag379
aa(lp388
g372
ag373
ag385
ag381
aa(lp389
g372
ag373
ag385
ag383
aa(lp390
g372
ag373
aS'Lincoln'
p391
ag375
aa(lp392
g372
ag373
ag391
ag377
aa(lp393
g372
ag373
ag391
ag379
aa(lp394
g372
ag373
ag391
ag381
aa(lp395
g372
ag373
ag391
ag383
aa(lp396
g372
ag373
aS'Memorial'
p397
ag375
aa(lp398
g372
ag373
ag397
ag377
aa(lp399
g372
ag373
ag397
ag379
aa(lp400
g372
ag373
ag397
ag381
aa(lp401
g372
ag373
ag397
ag383
aa(lp402
g372
aS'six'
p403
ag374
ag375
aa(lp404
g372
ag403
ag374
ag377
aa(lp405
g372
ag403
ag374
ag379
aa(lp406
g372
ag403
ag374
ag381
aa(lp407
g372
ag403
ag374
ag383
aa(lp408
g372
ag403
ag385
ag375
aa(lp409
g372
ag403
ag385
ag377
aa(lp410
g372
ag403
ag385
ag379
aa(lp411
g372
ag403
ag385
ag381
aa(lp412
g372
ag403
ag385
ag383
aa(lp413
g372
ag403
ag391
ag375
aa(lp414
g372
ag403
ag391
ag377
aa(lp415
g372
ag403
ag391
ag379
aa(lp416
g372
ag403
ag391
ag381
aa(lp417
g372
ag403
ag391
ag383
aa(lp418
g372
ag403
ag397
ag375
aa(lp419
g372
ag403
ag397
ag377
aa(lp420
g372
ag403
ag397
ag379
aa(lp421
g372
ag403
ag397
ag381
aa(lp422
g372
ag403
ag397
ag383
aa(lp423
g372
aS'Martin'
p424
ag374
ag375
aa(lp425
g372
ag424
ag374
ag377
aa(lp426
g372
ag424
ag374
ag379
aa(lp427
g372
ag424
ag374
ag381
aa(lp428
g372
ag424
ag374
ag383
aa(lp429
g372
ag424
ag385
ag375
aa(lp430
g372
ag424
ag385
ag377
aa(lp431
g372
ag424
ag385
ag379
aa(lp432
g372
ag424
ag385
ag381
aa(lp433
g372
ag424
ag385
ag383
aa(lp434
g372
ag424
ag391
ag375
aa(lp435
g372
ag424
ag391
ag377
aa(lp436
g372
ag424
ag391
ag379
aa(lp437
g372
ag424
ag391
ag381
aa(lp438
g372
ag424
ag391
ag383
aa(lp439
g372
ag424
ag397
ag375
aa(lp440
g372
ag424
ag397
ag377
aa(lp441
g372
ag424
ag397
ag379
aa(lp442
g372
ag424
ag397
ag381
aa(lp443
g372
ag424
ag397
ag383
aa(lp444
g372
aS'Luther'
p445
ag374
ag375
aa(lp446
g372
ag445
ag374
ag377
aa(lp447
g372
ag445
ag374
ag379
aa(lp448
g372
ag445
ag374
ag381
aa(lp449
g372
ag445
ag374
ag383
aa(lp450
g372
ag445
ag385
ag375
aa(lp451
g372
ag445
ag385
ag377
aa(lp452
g372
ag445
ag385
ag379
aa(lp453
g372
ag445
ag385
ag381
aa(lp454
g372
ag445
ag385
ag383
aa(lp455
g372
ag445
ag391
ag375
aa(lp456
g372
ag445
ag391
ag377
aa(lp457
g372
ag445
ag391
ag379
aa(lp458
g372
ag445
ag391
ag381
aa(lp459
g372
ag445
ag391
ag383
aa(lp460
g372
ag445
ag397
ag375
aa(lp461
g372
ag445
ag397
ag377
aa(lp462
g372
ag445
ag397
ag379
aa(lp463
g372
ag445
ag397
ag381
aa(lp464
g372
ag445
ag397
ag383
aa(lp465
g372
aS'King'
p466
ag374
ag375
aa(lp467
g372
ag466
ag374
ag377
aa(lp468
g372
ag466
ag374
ag379
aa(lp469
g372
ag466
ag374
ag381
aa(lp470
g372
ag466
ag374
ag383
aa(lp471
g372
ag466
ag385
ag375
aa(lp472
g372
ag466
ag385
ag377
aa(lp473
g372
ag466
ag385
ag379
aa(lp474
g372
ag466
ag385
ag381
aa(lp475
g372
ag466
ag385
ag383
aa(lp476
g372
ag466
ag391
ag375
aa(lp477
g372
ag466
ag391
ag377
aa(lp478
g372
ag466
ag391
ag379
aa(lp479
g372
ag466
ag391
ag381
aa(lp480
g372
ag466
ag391
ag383
aa(lp481
g372
ag466
ag397
ag375
aa(lp482
g372
ag466
ag397
ag377
aa(lp483
g372
ag466
ag397
ag379
aa(lp484
g372
ag466
ag397
ag381
aa(lp485
g372
ag466
ag397
ag383
aa(lp486
g372
aS'James'
p487
ag374
ag375
aa(lp488
g372
ag487
ag374
ag377
aa(lp489
g372
ag487
ag374
ag379
aa(lp490
g372
ag487
ag374
ag381
aa(lp491
g372
ag487
ag374
ag383
aa(lp492
g372
ag487
ag385
ag375
aa(lp493
g372
ag487
ag385
ag377
aa(lp494
g372
ag487
ag385
ag379
aa(lp495
g372
ag487
ag385
ag381
aa(lp496
g372
ag487
ag385
ag383
aa(lp497
g372
ag487
ag391
ag375
aa(lp498
g372
ag487
ag391
ag377
aa(lp499
g372
ag487
ag391
ag379
aa(lp500
g372
ag487
ag391
ag381
aa(lp501
g372
ag487
ag391
ag383
aa(lp502
g372
ag487
ag397
ag375
aa(lp503
g372
ag487
ag397
ag377
aa(lp504
g372
ag487
ag397
ag379
aa(lp505
g372
ag487
ag397
ag381
aa(lp506
g372
ag487
ag397
ag383
aa(lp507
g372
aS'Farmer'
p508
ag374
ag375
aa(lp509
g372
ag508
ag374
ag377
aa(lp510
g372
ag508
ag374
ag379
aa(lp511
g372
ag508
ag374
ag381
aa(lp512
g372
ag508
ag374
ag383
aa(lp513
g372
ag508
ag385
ag375
aa(lp514
g372
ag508
ag385
ag377
aa(lp515
g372
ag508
ag385
ag379
aa(lp516
g372
ag508
ag385
ag381
aa(lp517
g372
ag508
ag385
ag383
aa(lp518
g372
ag508
ag391
ag375
aa(lp519
g372
ag508
ag391
ag377
aa(lp520
g372
ag508
ag391
ag379
aa(lp521
g372
ag508
ag391
ag381
aa(lp522
g372
ag508
ag391
ag383
aa(lp523
g372
ag508
ag397
ag375
aa(lp524
g372
ag508
ag397
ag377
aa(lp525
g372
ag508
ag397
ag379
aa(lp526
g372
ag508
ag397
ag381
aa(lp527
g372
ag508
ag397
ag383
aa(lp528
g372
aS'John'
p529
ag374
ag375
aa(lp530
g372
ag529
ag374
ag377
aa(lp531
g372
ag529
ag374
ag379
aa(lp532
g372
ag529
ag374
ag381
aa(lp533
g372
ag529
ag374
ag383
aa(lp534
g372
ag529
ag385
ag375
aa(lp535
g372
ag529
ag385
ag377
aa(lp536
g372
ag529
ag385
ag379
aa(lp537
g372
ag529
ag385
ag381
aa(lp538
g372
ag529
ag385
ag383
aa(lp539
g372
ag529
ag391
ag375
aa(lp540
g372
ag529
ag391
ag377
aa(lp541
g372
ag529
ag391
ag379
aa(lp542
g372
ag529
ag391
ag381
aa(lp543
g372
ag529
ag391
ag383
aa(lp544
g372
ag529
ag397
ag375
aa(lp545
g372
ag529
ag397
ag377
aa(lp546
g372
ag529
ag397
ag379
aa(lp547
g372
ag529
ag397
ag381
aa(lp548
g372
ag529
ag397
ag383
aa(lp549
g372
aS'Lewis'
p550
ag374
ag375
aa(lp551
g372
ag550
ag374
ag377
aa(lp552
g372
ag550
ag374
ag379
aa(lp553
g372
ag550
ag374
ag381
aa(lp554
g372
ag550
ag374
ag383
aa(lp555
g372
ag550
ag385
ag375
aa(lp556
g372
ag550
ag385
ag377
aa(lp557
g372
ag550
ag385
ag379
aa(lp558
g372
ag550
ag385
ag381
aa(lp559
g372
ag550
ag385
ag383
aa(lp560
g372
ag550
ag391
ag375
aa(lp561
g372
ag550
ag391
ag377
aa(lp562
g372
ag550
ag391
ag379
aa(lp563
g372
ag550
ag391
ag381
aa(lp564
g372
ag550
ag391
ag383
aa(lp565
g372
ag550
ag397
ag375
aa(lp566
g372
ag550
ag397
ag377
aa(lp567
g372
ag550
ag397
ag379
aa(lp568
g372
ag550
ag397
ag381
aa(lp569
g372
ag550
ag397
ag383
aa(lp570
g372
aS'Roy'
p571
ag374
ag375
aa(lp572
g372
ag571
ag374
ag377
aa(lp573
g372
ag571
ag374
ag379
aa(lp574
g372
ag571
ag374
ag381
aa(lp575
g372
ag571
ag374
ag383
aa(lp576
g372
ag571
ag385
ag375
aa(lp577
g372
ag571
ag385
ag377
aa(lp578
g372
ag571
ag385
ag379
aa(lp579
g372
ag571
ag385
ag381
aa(lp580
g372
ag571
ag385
ag383
aa(lp581
g372
ag571
ag391
ag375
aa(lp582
g372
ag571
ag391
ag377
aa(lp583
g372
ag571
ag391
ag379
aa(lp584
g372
ag571
ag391
ag381
aa(lp585
g372
ag571
ag391
ag383
aa(lp586
g372
ag571
ag397
ag375
aa(lp587
g372
ag571
ag397
ag377
aa(lp588
g372
ag571
ag397
ag379
aa(lp589
g372
ag571
ag397
ag381
aa(lp590
g372
ag571
ag397
ag383
aa(lp591
g372
aS'Wilkins'
p592
ag374
ag375
aa(lp593
g372
ag592
ag374
ag377
aa(lp594
g372
ag592
ag374
ag379
aa(lp595
g372
ag592
ag374
ag381
aa(lp596
g372
ag592
ag374
ag383
aa(lp597
g372
ag592
ag385
ag375
aa(lp598
g372
ag592
ag385
ag377
aa(lp599
g372
ag592
ag385
ag379
aa(lp600
g372
ag592
ag385
ag381
aa(lp601
g372
ag592
ag385
ag383
aa(lp602
g372
ag592
ag391
ag375
aa(lp603
g372
ag592
ag391
ag377
aa(lp604
g372
ag592
ag391
ag379
aa(lp605
g372
ag592
ag391
ag381
aa(lp606
g372
ag592
ag391
ag383
aa(lp607
g372
ag592
ag397
ag375
aa(lp608
g372
ag592
ag397
ag377
aa(lp609
g372
ag592
ag397
ag379
aa(lp610
g372
ag592
ag397
ag381
aa(lp611
g372
ag592
ag397
ag383
aa(lp612
g372
aS'Whitney'
p613
ag374
ag375
aa(lp614
g372
ag613
ag374
ag377
aa(lp615
g372
ag613
ag374
ag379
aa(lp616
g372
ag613
ag374
ag381
aa(lp617
g372
ag613
ag374
ag383
aa(lp618
g372
ag613
ag385
ag375
aa(lp619
g372
ag613
ag385
ag377
aa(lp620
g372
ag613
ag385
ag379
aa(lp621
g372
ag613
ag385
ag381
aa(lp622
g372
ag613
ag385
ag383
aa(lp623
g372
ag613
ag391
ag375
aa(lp624
g372
ag613
ag391
ag377
aa(lp625
g372
ag613
ag391
ag379
aa(lp626
g372
ag613
ag391
ag381
aa(lp627
g372
ag613
ag391
ag383
aa(lp628
g372
ag613
ag397
ag375
aa(lp629
g372
ag613
ag397
ag377
aa(lp630
g372
ag613
ag397
ag379
aa(lp631
g372
ag613
ag397
ag381
aa(lp632
g372
ag613
ag397
ag383
aa(lp633
g372
aS'Young'
p634
ag374
ag375
aa(lp635
g372
ag634
ag374
ag377
aa(lp636
g372
ag634
ag374
ag379
aa(lp637
g372
ag634
ag374
ag381
aa(lp638
g372
ag634
ag374
ag383
aa(lp639
g372
ag634
ag385
ag375
aa(lp640
g372
ag634
ag385
ag377
aa(lp641
g372
ag634
ag385
ag379
aa(lp642
g372
ag634
ag385
ag381
aa(lp643
g372
ag634
ag385
ag383
aa(lp644
g372
ag634
ag391
ag375
aa(lp645
g372
ag634
ag391
ag377
aa(lp646
g372
ag634
ag391
ag379
aa(lp647
g372
ag634
ag391
ag381
aa(lp648
g372
ag634
ag391
ag383
aa(lp649
g372
ag634
ag397
ag375
aa(lp650
g372
ag634
ag397
ag377
aa(lp651
g372
ag634
ag397
ag379
aa(lp652
g372
ag634
ag397
ag381
aa(lp653
g372
ag634
ag397
ag383
aa(lp654
S'Philip'
p655
ag373
ag374
ag375
aa(lp656
g655
ag373
ag374
ag377
aa(lp657
g655
ag373
ag374
ag379
aa(lp658
g655
ag373
ag374
ag381
aa(lp659
g655
ag373
ag374
ag383
aa(lp660
g655
ag373
ag385
ag375
aa(lp661
g655
ag373
ag385
ag377
aa(lp662
g655
ag373
ag385
ag379
aa(lp663
g655
ag373
ag385
ag381
aa(lp664
g655
ag373
ag385
ag383
aa(lp665
g655
ag373
ag391
ag375
aa(lp666
g655
ag373
ag391
ag377
aa(lp667
g655
ag373
ag391
ag379
aa(lp668
g655
ag373
ag391
ag381
aa(lp669
g655
ag373
ag391
ag383
aa(lp670
g655
ag373
ag397
ag375
aa(lp671
g655
ag373
ag397
ag377
aa(lp672
g655
ag373
ag397
ag379
aa(lp673
g655
ag373
ag397
ag381
aa(lp674
g655
ag373
ag397
ag383
aa(lp675
g655
ag403
ag374
ag375
aa(lp676
g655
ag403
ag374
ag377
aa(lp677
g655
ag403
ag374
ag379
aa(lp678
g655
ag403
ag374
ag381
aa(lp679
g655
ag403
ag374
ag383
aa(lp680
g655
ag403
ag385
ag375
aa(lp681
g655
ag403
ag385
ag377
aa(lp682
g655
ag403
ag385
ag379
aa(lp683
g655
ag403
ag385
ag381
aa(lp684
g655
ag403
ag385
ag383
aa(lp685
g655
ag403
ag391
ag375
aa(lp686
g655
ag403
ag391
ag377
aa(lp687
g655
ag403
ag391
ag379
aa(lp688
g655
ag403
ag391
ag381
aa(lp689
g655
ag403
ag391
ag383
aa(lp690
g655
ag403
ag397
ag375
aa(lp691
g655
ag403
ag397
ag377
aa(lp692
g655
ag403
ag397
ag379
aa(lp693
g655
ag403
ag397
ag381
aa(lp694
g655
ag403
ag397
ag383
aa(lp695
g655
ag424
ag374
ag375
aa(lp696
g655
ag424
ag374
ag377
aa(lp697
g655
ag424
ag374
ag379
aa(lp698
g655
ag424
ag374
ag381
aa(lp699
g655
ag424
ag374
ag383
aa(lp700
g655
ag424
ag385
ag375
aa(lp701
g655
ag424
ag385
ag377
aa(lp702
g655
ag424
ag385
ag379
aa(lp703
g655
ag424
ag385
ag381
aa(lp704
g655
ag424
ag385
ag383
aa(lp705
g655
ag424
ag391
ag375
aa(lp706
g655
ag424
ag391
ag377
aa(lp707
g655
ag424
ag391
ag379
aa(lp708
g655
ag424
ag391
ag381
aa(lp709
g655
ag424
ag391
ag383
aa(lp710
g655
ag424
ag397
ag375
aa(lp711
g655
ag424
ag397
ag377
aa(lp712
g655
ag424
ag397
ag379
aa(lp713
g655
ag424
ag397
ag381
aa(lp714
g655
ag424
ag397
ag383
aa(lp715
g655
ag445
ag374
ag375
aa(lp716
g655
ag445
ag374
ag377
aa(lp717
g655
ag445
ag374
ag379
aa(lp718
g655
ag445
ag374
ag381
aa(lp719
g655
ag445
ag374
ag383
aa(lp720
g655
ag445
ag385
ag375
aa(lp721
g655
ag445
ag385
ag377
aa(lp722
g655
ag445
ag385
ag379
aa(lp723
g655
ag445
ag385
ag381
aa(lp724
g655
ag445
ag385
ag383
aa(lp725
g655
ag445
ag391
ag375
aa(lp726
g655
ag445
ag391
ag377
aa(lp727
g655
ag445
ag391
ag379
aa(lp728
g655
ag445
ag391
ag381
aa(lp729
g655
ag445
ag391
ag383
aa(lp730
g655
ag445
ag397
ag375
aa(lp731
g655
ag445
ag397
ag377
aa(lp732
g655
ag445
ag397
ag379
aa(lp733
g655
ag445
ag397
ag381
aa(lp734
g655
ag445
ag397
ag383
aa(lp735
g655
ag466
ag374
ag375
aa(lp736
g655
ag466
ag374
ag377
aa(lp737
g655
ag466
ag374
ag379
aa(lp738
g655
ag466
ag374
ag381
aa(lp739
g655
ag466
ag374
ag383
aa(lp740
g655
ag466
ag385
ag375
aa(lp741
g655
ag466
ag385
ag377
aa(lp742
g655
ag466
ag385
ag379
aa(lp743
g655
ag466
ag385
ag381
aa(lp744
g655
ag466
ag385
ag383
aa(lp745
g655
ag466
ag391
ag375
aa(lp746
g655
ag466
ag391
ag377
aa(lp747
g655
ag466
ag391
ag379
aa(lp748
g655
ag466
ag391
ag381
aa(lp749
g655
ag466
ag391
ag383
aa(lp750
g655
ag466
ag397
ag375
aa(lp751
g655
ag466
ag397
ag377
aa(lp752
g655
ag466
ag397
ag379
aa(lp753
g655
ag466
ag397
ag381
aa(lp754
g655
ag466
ag397
ag383
aa(lp755
g655
ag487
ag374
ag375
aa(lp756
g655
ag487
ag374
ag377
aa(lp757
g655
ag487
ag374
ag379
aa(lp758
g655
ag487
ag374
ag381
aa(lp759
g655
ag487
ag374
ag383
aa(lp760
g655
ag487
ag385
ag375
aa(lp761
g655
ag487
ag385
ag377
aa(lp762
g655
ag487
ag385
ag379
aa(lp763
g655
ag487
ag385
ag381
aa(lp764
g655
ag487
ag385
ag383
aa(lp765
g655
ag487
ag391
ag375
aa(lp766
g655
ag487
ag391
ag377
aa(lp767
g655
ag487
ag391
ag379
aa(lp768
g655
ag487
ag391
ag381
aa(lp769
g655
ag487
ag391
ag383
aa(lp770
g655
ag487
ag397
ag375
aa(lp771
g655
ag487
ag397
ag377
aa(lp772
g655
ag487
ag397
ag379
aa(lp773
g655
ag487
ag397
ag381
aa(lp774
g655
ag487
ag397
ag383
aa(lp775
g655
ag508
ag374
ag375
aa(lp776
g655
ag508
ag374
ag377
aa(lp777
g655
ag508
ag374
ag379
aa(lp778
g655
ag508
ag374
ag381
aa(lp779
g655
ag508
ag374
ag383
aa(lp780
g655
ag508
ag385
ag375
aa(lp781
g655
ag508
ag385
ag377
aa(lp782
g655
ag508
ag385
ag379
aa(lp783
g655
ag508
ag385
ag381
aa(lp784
g655
ag508
ag385
ag383
aa(lp785
g655
ag508
ag391
ag375
aa(lp786
g655
ag508
ag391
ag377
aa(lp787
g655
ag508
ag391
ag379
aa(lp788
g655
ag508
ag391
ag381
aa(lp789
g655
ag508
ag391
ag383
aa(lp790
g655
ag508
ag397
ag375
aa(lp791
g655
ag508
ag397
ag377
aa(lp792
g655
ag508
ag397
ag379
aa(lp793
g655
ag508
ag397
ag381
aa(lp794
g655
ag508
ag397
ag383
aa(lp795
g655
ag529
ag374
ag375
aa(lp796
g655
ag529
ag374
ag377
aa(lp797
g655
ag529
ag374
ag379
aa(lp798
g655
ag529
ag374
ag381
aa(lp799
g655
ag529
ag374
ag383
aa(lp800
g655
ag529
ag385
ag375
aa(lp801
g655
ag529
ag385
ag377
aa(lp802
g655
ag529
ag385
ag379
aa(lp803
g655
ag529
ag385
ag381
aa(lp804
g655
ag529
ag385
ag383
aa(lp805
g655
ag529
ag391
ag375
aa(lp806
g655
ag529
ag391
ag377
aa(lp807
g655
ag529
ag391
ag379
aa(lp808
g655
ag529
ag391
ag381
aa(lp809
g655
ag529
ag391
ag383
aa(lp810
g655
ag529
ag397
ag375
aa(lp811
g655
ag529
ag397
ag377
aa(lp812
g655
ag529
ag397
ag379
aa(lp813
g655
ag529
ag397
ag381
aa(lp814
g655
ag529
ag397
ag383
aa(lp815
g655
ag550
ag374
ag375
aa(lp816
g655
ag550
ag374
ag377
aa(lp817
g655
ag550
ag374
ag379
aa(lp818
g655
ag550
ag374
ag381
aa(lp819
g655
ag550
ag374
ag383
aa(lp820
g655
ag550
ag385
ag375
aa(lp821
g655
ag550
ag385
ag377
aa(lp822
g655
ag550
ag385
ag379
aa(lp823
g655
ag550
ag385
ag381
aa(lp824
g655
ag550
ag385
ag383
aa(lp825
g655
ag550
ag391
ag375
aa(lp826
g655
ag550
ag391
ag377
aa(lp827
g655
ag550
ag391
ag379
aa(lp828
g655
ag550
ag391
ag381
aa(lp829
g655
ag550
ag391
ag383
aa(lp830
g655
ag550
ag397
ag375
aa(lp831
g655
ag550
ag397
ag377
aa(lp832
g655
ag550
ag397
ag379
aa(lp833
g655
ag550
ag397
ag381
aa(lp834
g655
ag550
ag397
ag383
aa(lp835
g655
ag571
ag374
ag375
aa(lp836
g655
ag571
ag374
ag377
aa(lp837
g655
ag571
ag374
ag379
aa(lp838
g655
ag571
ag374
ag381
aa(lp839
g655
ag571
ag374
ag383
aa(lp840
g655
ag571
ag385
ag375
aa(lp841
g655
ag571
ag385
ag377
aa(lp842
g655
ag571
ag385
ag379
aa(lp843
g655
ag571
ag385
ag381
aa(lp844
g655
ag571
ag385
ag383
aa(lp845
g655
ag571
ag391
ag375
aa(lp846
g655
ag571
ag391
ag377
aa(lp847
g655
ag571
ag391
ag379
aa(lp848
g655
ag571
ag391
ag381
aa(lp849
g655
ag571
ag391
ag383
aa(lp850
g655
ag571
ag397
ag375
aa(lp851
g655
ag571
ag397
ag377
aa(lp852
g655
ag571
ag397
ag379
aa(lp853
g655
ag571
ag397
ag381
aa(lp854
g655
ag571
ag397
ag383
aa(lp855
g655
ag592
ag374
ag375
aa(lp856
g655
ag592
ag374
ag377
aa(lp857
g655
ag592
ag374
ag379
aa(lp858
g655
ag592
ag374
ag381
aa(lp859
g655
ag592
ag374
ag383
aa(lp860
g655
ag592
ag385
ag375
aa(lp861
g655
ag592
ag385
ag377
aa(lp862
g655
ag592
ag385
ag379
aa(lp863
g655
ag592
ag385
ag381
aa(lp864
g655
ag592
ag385
ag383
aa(lp865
g655
ag592
ag391
ag375
aa(lp866
g655
ag592
ag391
ag377
aa(lp867
g655
ag592
ag391
ag379
aa(lp868
g655
ag592
ag391
ag381
aa(lp869
g655
ag592
ag391
ag383
aa(lp870
g655
ag592
ag397
ag375
aa(lp871
g655
ag592
ag397
ag377
aa(lp872
g655
ag592
ag397
ag379
aa(lp873
g655
ag592
ag397
ag381
aa(lp874
g655
ag592
ag397
ag383
aa(lp875
g655
ag613
ag374
ag375
aa(lp876
g655
ag613
ag374
ag377
aa(lp877
g655
ag613
ag374
ag379
aa(lp878
g655
ag613
ag374
ag381
aa(lp879
g655
ag613
ag374
ag383
aa(lp880
g655
ag613
ag385
ag375
aa(lp881
g655
ag613
ag385
ag377
aa(lp882
g655
ag613
ag385
ag379
aa(lp883
g655
ag613
ag385
ag381
aa(lp884
g655
ag613
ag385
ag383
aa(lp885
g655
ag613
ag391
ag375
aa(lp886
g655
ag613
ag391
ag377
aa(lp887
g655
ag613
ag391
ag379
aa(lp888
g655
ag613
ag391
ag381
aa(lp889
g655
ag613
ag391
ag383
aa(lp890
g655
ag613
ag397
ag375
aa(lp891
g655
ag613
ag397
ag377
aa(lp892
g655
ag613
ag397
ag379
aa(lp893
g655
ag613
ag397
ag381
aa(lp894
g655
ag613
ag397
ag383
aa(lp895
g655
ag634
ag374
ag375
aa(lp896
g655
ag634
ag374
ag377
aa(lp897
g655
ag634
ag374
ag379
aa(lp898
g655
ag634
ag374
ag381
aa(lp899
g655
ag634
ag374
ag383
aa(lp900
g655
ag634
ag385
ag375
aa(lp901
g655
ag634
ag385
ag377
aa(lp902
g655
ag634
ag385
ag379
aa(lp903
g655
ag634
ag385
ag381
aa(lp904
g655
ag634
ag385
ag383
aa(lp905
g655
ag634
ag391
ag375
aa(lp906
g655
ag634
ag391
ag377
aa(lp907
g655
ag634
ag391
ag379
aa(lp908
g655
ag634
ag391
ag381
aa(lp909
g655
ag634
ag391
ag383
aa(lp910
g655
ag634
ag397
ag375
aa(lp911
g655
ag634
ag397
ag377
aa(lp912
g655
ag634
ag397
ag379
aa(lp913
g655
ag634
ag397
ag381
aa(lp914
g655
ag634
ag397
ag383
aa(lp915
S'Randolph'
p916
ag373
ag374
ag375
aa(lp917
g916
ag373
ag374
ag377
aa(lp918
g916
ag373
ag374
ag379
aa(lp919
g916
ag373
ag374
ag381
aa(lp920
g916
ag373
ag374
ag383
aa(lp921
g916
ag373
ag385
ag375
aa(lp922
g916
ag373
ag385
ag377
aa(lp923
g916
ag373
ag385
ag379
aa(lp924
g916
ag373
ag385
ag381
aa(lp925
g916
ag373
ag385
ag383
aa(lp926
g916
ag373
ag391
ag375
aa(lp927
g916
ag373
ag391
ag377
aa(lp928
g916
ag373
ag391
ag379
aa(lp929
g916
ag373
ag391
ag381
aa(lp930
g916
ag373
ag391
ag383
aa(lp931
g916
ag373
ag397
ag375
aa(lp932
g916
ag373
ag397
ag377
aa(lp933
g916
ag373
ag397
ag379
aa(lp934
g916
ag373
ag397
ag381
aa(lp935
g916
ag373
ag397
ag383
aa(lp936
g916
ag403
ag374
ag375
aa(lp937
g916
ag403
ag374
ag377
aa(lp938
g916
ag403
ag374
ag379
aa(lp939
g916
ag403
ag374
ag381
aa(lp940
g916
ag403
ag374
ag383
aa(lp941
g916
ag403
ag385
ag375
aa(lp942
g916
ag403
ag385
ag377
aa(lp943
g916
ag403
ag385
ag379
aa(lp944
g916
ag403
ag385
ag381
aa(lp945
g916
ag403
ag385
ag383
aa(lp946
g916
ag403
ag391
ag375
aa(lp947
g916
ag403
ag391
ag377
aa(lp948
g916
ag403
ag391
ag379
aa(lp949
g916
ag403
ag391
ag381
aa(lp950
g916
ag403
ag391
ag383
aa(lp951
g916
ag403
ag397
ag375
aa(lp952
g916
ag403
ag397
ag377
aa(lp953
g916
ag403
ag397
ag379
aa(lp954
g916
ag403
ag397
ag381
aa(lp955
g916
ag403
ag397
ag383
aa(lp956
g916
ag424
ag374
ag375
aa(lp957
g916
ag424
ag374
ag377
aa(lp958
g916
ag424
ag374
ag379
aa(lp959
g916
ag424
ag374
ag381
aa(lp960
g916
ag424
ag374
ag383
aa(lp961
g916
ag424
ag385
ag375
aa(lp962
g916
ag424
ag385
ag377
aa(lp963
g916
ag424
ag385
ag379
aa(lp964
g916
ag424
ag385
ag381
aa(lp965
g916
ag424
ag385
ag383
aa(lp966
g916
ag424
ag391
ag375
aa(lp967
g916
ag424
ag391
ag377
aa(lp968
g916
ag424
ag391
ag379
aa(lp969
g916
ag424
ag391
ag381
aa(lp970
g916
ag424
ag391
ag383
aa(lp971
g916
ag424
ag397
ag375
aa(lp972
g916
ag424
ag397
ag377
aa(lp973
g916
ag424
ag397
ag379
aa(lp974
g916
ag424
ag397
ag381
aa(lp975
g916
ag424
ag397
ag383
aa(lp976
g916
ag445
ag374
ag375
aa(lp977
g916
ag445
ag374
ag377
aa(lp978
g916
ag445
ag374
ag379
aa(lp979
g916
ag445
ag374
ag381
aa(lp980
g916
ag445
ag374
ag383
aa(lp981
g916
ag445
ag385
ag375
aa(lp982
g916
ag445
ag385
ag377
aa(lp983
g916
ag445
ag385
ag379
aa(lp984
g916
ag445
ag385
ag381
aa(lp985
g916
ag445
ag385
ag383
aa(lp986
g916
ag445
ag391
ag375
aa(lp987
g916
ag445
ag391
ag377
aa(lp988
g916
ag445
ag391
ag379
aa(lp989
g916
ag445
ag391
ag381
aa(lp990
g916
ag445
ag391
ag383
aa(lp991
g916
ag445
ag397
ag375
aa(lp992
g916
ag445
ag397
ag377
aa(lp993
g916
ag445
ag397
ag379
aa(lp994
g916
ag445
ag397
ag381
aa(lp995
g916
ag445
ag397
ag383
aa(lp996
g916
ag466
ag374
ag375
aa(lp997
g916
ag466
ag374
ag377
aa(lp998
g916
ag466
ag374
ag379
aa(lp999
g916
ag466
ag374
ag381
aa(lp1000
g916
ag466
ag374
ag383
aa(lp1001
g916
ag466
ag385
ag375
aa(lp1002
g916
ag466
ag385
ag377
aa(lp1003
g916
ag466
ag385
ag379
aa(lp1004
g916
ag466
ag385
ag381
aa(lp1005
g916
ag466
ag385
ag383
aa(lp1006
g916
ag466
ag391
ag375
aa(lp1007
g916
ag466
ag391
ag377
aa(lp1008
g916
ag466
ag391
ag379
aa(lp1009
g916
ag466
ag391
ag381
aa(lp1010
g916
ag466
ag391
ag383
aa(lp1011
g916
ag466
ag397
ag375
aa(lp1012
g916
ag466
ag397
ag377
aa(lp1013
g916
ag466
ag397
ag379
aa(lp1014
g916
ag466
ag397
ag381
aa(lp1015
g916
ag466
ag397
ag383
aa(lp1016
g916
ag487
ag374
ag375
aa(lp1017
g916
ag487
ag374
ag377
aa(lp1018
g916
ag487
ag374
ag379
aa(lp1019
g916
ag487
ag374
ag381
aa(lp1020
g916
ag487
ag374
ag383
aa(lp1021
g916
ag487
ag385
ag375
aa(lp1022
g916
ag487
ag385
ag377
aa(lp1023
g916
ag487
ag385
ag379
aa(lp1024
g916
ag487
ag385
ag381
aa(lp1025
g916
ag487
ag385
ag383
aa(lp1026
g916
ag487
ag391
ag375
aa(lp1027
g916
ag487
ag391
ag377
aa(lp1028
g916
ag487
ag391
ag379
aa(lp1029
g916
ag487
ag391
ag381
aa(lp1030
g916
ag487
ag391
ag383
aa(lp1031
g916
ag487
ag397
ag375
aa(lp1032
g916
ag487
ag397
ag377
aa(lp1033
g916
ag487
ag397
ag379
aa(lp1034
g916
ag487
ag397
ag381
aa(lp1035
g916
ag487
ag397
ag383
aa(lp1036
g916
ag508
ag374
ag375
aa(lp1037
g916
ag508
ag374
ag377
aa(lp1038
g916
ag508
ag374
ag379
aa(lp1039
g916
ag508
ag374
ag381
aa(lp1040
g916
ag508
ag374
ag383
aa(lp1041
g916
ag508
ag385
ag375
aa(lp1042
g916
ag508
ag385
ag377
aa(lp1043
g916
ag508
ag385
ag379
aa(lp1044
g916
ag508
ag385
ag381
aa(lp1045
g916
ag508
ag385
ag383
aa(lp1046
g916
ag508
ag391
ag375
aa(lp1047
g916
ag508
ag391
ag377
aa(lp1048
g916
ag508
ag391
ag379
aa(lp1049
g916
ag508
ag391
ag381
aa(lp1050
g916
ag508
ag391
ag383
aa(lp1051
g916
ag508
ag397
ag375
aa(lp1052
g916
ag508
ag397
ag377
aa(lp1053
g916
ag508
ag397
ag379
aa(lp1054
g916
ag508
ag397
ag381
aa(lp1055
g916
ag508
ag397
ag383
aa(lp1056
g916
ag529
ag374
ag375
aa(lp1057
g916
ag529
ag374
ag377
aa(lp1058
g916
ag529
ag374
ag379
aa(lp1059
g916
ag529
ag374
ag381
aa(lp1060
g916
ag529
ag374
ag383
aa(lp1061
g916
ag529
ag385
ag375
aa(lp1062
g916
ag529
ag385
ag377
aa(lp1063
g916
ag529
ag385
ag379
aa(lp1064
g916
ag529
ag385
ag381
aa(lp1065
g916
ag529
ag385
ag383
aa(lp1066
g916
ag529
ag391
ag375
aa(lp1067
g916
ag529
ag391
ag377
aa(lp1068
g916
ag529
ag391
ag379
aa(lp1069
g916
ag529
ag391
ag381
aa(lp1070
g916
ag529
ag391
ag383
aa(lp1071
g916
ag529
ag397
ag375
aa(lp1072
g916
ag529
ag397
ag377
aa(lp1073
g916
ag529
ag397
ag379
aa(lp1074
g916
ag529
ag397
ag381
aa(lp1075
g916
ag529
ag397
ag383
aa(lp1076
g916
ag550
ag374
ag375
aa(lp1077
g916
ag550
ag374
ag377
aa(lp1078
g916
ag550
ag374
ag379
aa(lp1079
g916
ag550
ag374
ag381
aa(lp1080
g916
ag550
ag374
ag383
aa(lp1081
g916
ag550
ag385
ag375
aa(lp1082
g916
ag550
ag385
ag377
aa(lp1083
g916
ag550
ag385
ag379
aa(lp1084
g916
ag550
ag385
ag381
aa(lp1085
g916
ag550
ag385
ag383
aa(lp1086
g916
ag550
ag391
ag375
aa(lp1087
g916
ag550
ag391
ag377
aa(lp1088
g916
ag550
ag391
ag379
aa(lp1089
g916
ag550
ag391
ag381
aa(lp1090
g916
ag550
ag391
ag383
aa(lp1091
g916
ag550
ag397
ag375
aa(lp1092
g916
ag550
ag397
ag377
aa(lp1093
g916
ag550
ag397
ag379
aa(lp1094
g916
ag550
ag397
ag381
aa(lp1095
g916
ag550
ag397
ag383
aa(lp1096
g916
ag571
ag374
ag375
aa(lp1097
g916
ag571
ag374
ag377
aa(lp1098
g916
ag571
ag374
ag379
aa(lp1099
g916
ag571
ag374
ag381
aa(lp1100
g916
ag571
ag374
ag383
aa(lp1101
g916
ag571
ag385
ag375
aa(lp1102
g916
ag571
ag385
ag377
aa(lp1103
g916
ag571
ag385
ag379
aa(lp1104
g916
ag571
ag385
ag381
aa(lp1105
g916
ag571
ag385
ag383
aa(lp1106
g916
ag571
ag391
ag375
aa(lp1107
g916
ag571
ag391
ag377
aa(lp1108
g916
ag571
ag391
ag379
aa(lp1109
g916
ag571
ag391
ag381
aa(lp1110
g916
ag571
ag391
ag383
aa(lp1111
g916
ag571
ag397
ag375
aa(lp1112
g916
ag571
ag397
ag377
aa(lp1113
g916
ag571
ag397
ag379
aa(lp1114
g916
ag571
ag397
ag381
aa(lp1115
g916
ag571
ag397
ag383
aa(lp1116
g916
ag592
ag374
ag375
aa(lp1117
g916
ag592
ag374
ag377
aa(lp1118
g916
ag592
ag374
ag379
aa(lp1119
g916
ag592
ag374
ag381
aa(lp1120
g916
ag592
ag374
ag383
aa(lp1121
g916
ag592
ag385
ag375
aa(lp1122
g916
ag592
ag385
ag377
aa(lp1123
g916
ag592
ag385
ag379
aa(lp1124
g916
ag592
ag385
ag381
aa(lp1125
g916
ag592
ag385
ag383
aa(lp1126
g916
ag592
ag391
ag375
aa(lp1127
g916
ag592
ag391
ag377
aa(lp1128
g916
ag592
ag391
ag379
aa(lp1129
g916
ag592
ag391
ag381
aa(lp1130
g916
ag592
ag391
ag383
aa(lp1131
g916
ag592
ag397
ag375
aa(lp1132
g916
ag592
ag397
ag377
aa(lp1133
g916
ag592
ag397
ag379
aa(lp1134
g916
ag592
ag397
ag381
aa(lp1135
g916
ag592
ag397
ag383
aa(lp1136
g916
ag613
ag374
ag375
aa(lp1137
g916
ag613
ag374
ag377
aa(lp1138
g916
ag613
ag374
ag379
aa(lp1139
g916
ag613
ag374
ag381
aa(lp1140
g916
ag613
ag374
ag383
aa(lp1141
g916
ag613
ag385
ag375
aa(lp1142
g916
ag613
ag385
ag377
aa(lp1143
g916
ag613
ag385
ag379
aa(lp1144
g916
ag613
ag385
ag381
aa(lp1145
g916
ag613
ag385
ag383
aa(lp1146
g916
ag613
ag391
ag375
aa(lp1147
g916
ag613
ag391
ag377
aa(lp1148
g916
ag613
ag391
ag379
aa(lp1149
g916
ag613
ag391
ag381
aa(lp1150
g916
ag613
ag391
ag383
aa(lp1151
g916
ag613
ag397
ag375
aa(lp1152
g916
ag613
ag397
ag377
aa(lp1153
g916
ag613
ag397
ag379
aa(lp1154
g916
ag613
ag397
ag381
aa(lp1155
g916
ag613
ag397
ag383
aa(lp1156
g916
ag634
ag374
ag375
aa(lp1157
g916
ag634
ag374
ag377
aa(lp1158
g916
ag634
ag374
ag379
aa(lp1159
g916
ag634
ag374
ag381
aa(lp1160
g916
ag634
ag374
ag383
aa(lp1161
g916
ag634
ag385
ag375
aa(lp1162
g916
ag634
ag385
ag377
aa(lp1163
g916
ag634
ag385
ag379
aa(lp1164
g916
ag634
ag385
ag381
aa(lp1165
g916
ag634
ag385
ag383
aa(lp1166
g916
ag634
ag391
ag375
aa(lp1167
g916
ag634
ag391
ag377
aa(lp1168
g916
ag634
ag391
ag379
aa(lp1169
g916
ag634
ag391
ag381
aa(lp1170
g916
ag634
ag391
ag383
aa(lp1171
g916
ag634
ag397
ag375
aa(lp1172
g916
ag634
ag397
ag377
aa(lp1173
g916
ag634
ag397
ag379
aa(lp1174
g916
ag634
ag397
ag381
aa(lp1175
g916
ag634
ag397
ag383
aa(lp1176
S'Bayard'
p1177
ag373
ag374
ag375
aa(lp1178
g1177
ag373
ag374
ag377
aa(lp1179
g1177
ag373
ag374
ag379
aa(lp1180
g1177
ag373
ag374
ag381
aa(lp1181
g1177
ag373
ag374
ag383
aa(lp1182
g1177
ag373
ag385
ag375
aa(lp1183
g1177
ag373
ag385
ag377
aa(lp1184
g1177
ag373
ag385
ag379
aa(lp1185
g1177
ag373
ag385
ag381
aa(lp1186
g1177
ag373
ag385
ag383
aa(lp1187
g1177
ag373
ag391
ag375
aa(lp1188
g1177
ag373
ag391
ag377
aa(lp1189
g1177
ag373
ag391
ag379
aa(lp1190
g1177
ag373
ag391
ag381
aa(lp1191
g1177
ag373
ag391
ag383
aa(lp1192
g1177
ag373
ag397
ag375
aa(lp1193
g1177
ag373
ag397
ag377
aa(lp1194
g1177
ag373
ag397
ag379
aa(lp1195
g1177
ag373
ag397
ag381
aa(lp1196
g1177
ag373
ag397
ag383
aa(lp1197
g1177
ag403
ag374
ag375
aa(lp1198
g1177
ag403
ag374
ag377
aa(lp1199
g1177
ag403
ag374
ag379
aa(lp1200
g1177
ag403
ag374
ag381
aa(lp1201
g1177
ag403
ag374
ag383
aa(lp1202
g1177
ag403
ag385
ag375
aa(lp1203
g1177
ag403
ag385
ag377
aa(lp1204
g1177
ag403
ag385
ag379
aa(lp1205
g1177
ag403
ag385
ag381
aa(lp1206
g1177
ag403
ag385
ag383
aa(lp1207
g1177
ag403
ag391
ag375
aa(lp1208
g1177
ag403
ag391
ag377
aa(lp1209
g1177
ag403
ag391
ag379
aa(lp1210
g1177
ag403
ag391
ag381
aa(lp1211
g1177
ag403
ag391
ag383
aa(lp1212
g1177
ag403
ag397
ag375
aa(lp1213
g1177
ag403
ag397
ag377
aa(lp1214
g1177
ag403
ag397
ag379
aa(lp1215
g1177
ag403
ag397
ag381
aa(lp1216
g1177
ag403
ag397
ag383
aa(lp1217
g1177
ag424
ag374
ag375
aa(lp1218
g1177
ag424
ag374
ag377
aa(lp1219
g1177
ag424
ag374
ag379
aa(lp1220
g1177
ag424
ag374
ag381
aa(lp1221
g1177
ag424
ag374
ag383
aa(lp1222
g1177
ag424
ag385
ag375
aa(lp1223
g1177
ag424
ag385
ag377
aa(lp1224
g1177
ag424
ag385
ag379
aa(lp1225
g1177
ag424
ag385
ag381
aa(lp1226
g1177
ag424
ag385
ag383
aa(lp1227
g1177
ag424
ag391
ag375
aa(lp1228
g1177
ag424
ag391
ag377
aa(lp1229
g1177
ag424
ag391
ag379
aa(lp1230
g1177
ag424
ag391
ag381
aa(lp1231
g1177
ag424
ag391
ag383
aa(lp1232
g1177
ag424
ag397
ag375
aa(lp1233
g1177
ag424
ag397
ag377
aa(lp1234
g1177
ag424
ag397
ag379
aa(lp1235
g1177
ag424
ag397
ag381
aa(lp1236
g1177
ag424
ag397
ag383
aa(lp1237
g1177
ag445
ag374
ag375
aa(lp1238
g1177
ag445
ag374
ag377
aa(lp1239
g1177
ag445
ag374
ag379
aa(lp1240
g1177
ag445
ag374
ag381
aa(lp1241
g1177
ag445
ag374
ag383
aa(lp1242
g1177
ag445
ag385
ag375
aa(lp1243
g1177
ag445
ag385
ag377
aa(lp1244
g1177
ag445
ag385
ag379
aa(lp1245
g1177
ag445
ag385
ag381
aa(lp1246
g1177
ag445
ag385
ag383
aa(lp1247
g1177
ag445
ag391
ag375
aa(lp1248
g1177
ag445
ag391
ag377
aa(lp1249
g1177
ag445
ag391
ag379
aa(lp1250
g1177
ag445
ag391
ag381
aa(lp1251
g1177
ag445
ag391
ag383
aa(lp1252
g1177
ag445
ag397
ag375
aa(lp1253
g1177
ag445
ag397
ag377
aa(lp1254
g1177
ag445
ag397
ag379
aa(lp1255
g1177
ag445
ag397
ag381
aa(lp1256
g1177
ag445
ag397
ag383
aa(lp1257
g1177
ag466
ag374
ag375
aa(lp1258
g1177
ag466
ag374
ag377
aa(lp1259
g1177
ag466
ag374
ag379
aa(lp1260
g1177
ag466
ag374
ag381
aa(lp1261
g1177
ag466
ag374
ag383
aa(lp1262
g1177
ag466
ag385
ag375
aa(lp1263
g1177
ag466
ag385
ag377
aa(lp1264
g1177
ag466
ag385
ag379
aa(lp1265
g1177
ag466
ag385
ag381
aa(lp1266
g1177
ag466
ag385
ag383
aa(lp1267
g1177
ag466
ag391
ag375
aa(lp1268
g1177
ag466
ag391
ag377
aa(lp1269
g1177
ag466
ag391
ag379
aa(lp1270
g1177
ag466
ag391
ag381
aa(lp1271
g1177
ag466
ag391
ag383
aa(lp1272
g1177
ag466
ag397
ag375
aa(lp1273
g1177
ag466
ag397
ag377
aa(lp1274
g1177
ag466
ag397
ag379
aa(lp1275
g1177
ag466
ag397
ag381
aa(lp1276
g1177
ag466
ag397
ag383
aa(lp1277
g1177
ag487
ag374
ag375
aa(lp1278
g1177
ag487
ag374
ag377
aa(lp1279
g1177
ag487
ag374
ag379
aa(lp1280
g1177
ag487
ag374
ag381
aa(lp1281
g1177
ag487
ag374
ag383
aa(lp1282
g1177
ag487
ag385
ag375
aa(lp1283
g1177
ag487
ag385
ag377
aa(lp1284
g1177
ag487
ag385
ag379
aa(lp1285
g1177
ag487
ag385
ag381
aa(lp1286
g1177
ag487
ag385
ag383
aa(lp1287
g1177
ag487
ag391
ag375
aa(lp1288
g1177
ag487
ag391
ag377
aa(lp1289
g1177
ag487
ag391
ag379
aa(lp1290
g1177
ag487
ag391
ag381
aa(lp1291
g1177
ag487
ag391
ag383
aa(lp1292
g1177
ag487
ag397
ag375
aa(lp1293
g1177
ag487
ag397
ag377
aa(lp1294
g1177
ag487
ag397
ag379
aa(lp1295
g1177
ag487
ag397
ag381
aa(lp1296
g1177
ag487
ag397
ag383
aa(lp1297
g1177
ag508
ag374
ag375
aa(lp1298
g1177
ag508
ag374
ag377
aa(lp1299
g1177
ag508
ag374
ag379
aa(lp1300
g1177
ag508
ag374
ag381
aa(lp1301
g1177
ag508
ag374
ag383
aa(lp1302
g1177
ag508
ag385
ag375
aa(lp1303
g1177
ag508
ag385
ag377
aa(lp1304
g1177
ag508
ag385
ag379
aa(lp1305
g1177
ag508
ag385
ag381
aa(lp1306
g1177
ag508
ag385
ag383
aa(lp1307
g1177
ag508
ag391
ag375
aa(lp1308
g1177
ag508
ag391
ag377
aa(lp1309
g1177
ag508
ag391
ag379
aa(lp1310
g1177
ag508
ag391
ag381
aa(lp1311
g1177
ag508
ag391
ag383
aa(lp1312
g1177
ag508
ag397
ag375
aa(lp1313
g1177
ag508
ag397
ag377
aa(lp1314
g1177
ag508
ag397
ag379
aa(lp1315
g1177
ag508
ag397
ag381
aa(lp1316
g1177
ag508
ag397
ag383
aa(lp1317
g1177
ag529
ag374
ag375
aa(lp1318
g1177
ag529
ag374
ag377
aa(lp1319
g1177
ag529
ag374
ag379
aa(lp1320
g1177
ag529
ag374
ag381
aa(lp1321
g1177
ag529
ag374
ag383
aa(lp1322
g1177
ag529
ag385
ag375
aa(lp1323
g1177
ag529
ag385
ag377
aa(lp1324
g1177
ag529
ag385
ag379
aa(lp1325
g1177
ag529
ag385
ag381
aa(lp1326
g1177
ag529
ag385
ag383
aa(lp1327
g1177
ag529
ag391
ag375
aa(lp1328
g1177
ag529
ag391
ag377
aa(lp1329
g1177
ag529
ag391
ag379
aa(lp1330
g1177
ag529
ag391
ag381
aa(lp1331
g1177
ag529
ag391
ag383
aa(lp1332
g1177
ag529
ag397
ag375
aa(lp1333
g1177
ag529
ag397
ag377
aa(lp1334
g1177
ag529
ag397
ag379
aa(lp1335
g1177
ag529
ag397
ag381
aa(lp1336
g1177
ag529
ag397
ag383
aa(lp1337
g1177
ag550
ag374
ag375
aa(lp1338
g1177
ag550
ag374
ag377
aa(lp1339
g1177
ag550
ag374
ag379
aa(lp1340
g1177
ag550
ag374
ag381
aa(lp1341
g1177
ag550
ag374
ag383
aa(lp1342
g1177
ag550
ag385
ag375
aa(lp1343
g1177
ag550
ag385
ag377
aa(lp1344
g1177
ag550
ag385
ag379
aa(lp1345
g1177
ag550
ag385
ag381
aa(lp1346
g1177
ag550
ag385
ag383
aa(lp1347
g1177
ag550
ag391
ag375
aa(lp1348
g1177
ag550
ag391
ag377
aa(lp1349
g1177
ag550
ag391
ag379
aa(lp1350
g1177
ag550
ag391
ag381
aa(lp1351
g1177
ag550
ag391
ag383
aa(lp1352
g1177
ag550
ag397
ag375
aa(lp1353
g1177
ag550
ag397
ag377
aa(lp1354
g1177
ag550
ag397
ag379
aa(lp1355
g1177
ag550
ag397
ag381
aa(lp1356
g1177
ag550
ag397
ag383
aa(lp1357
g1177
ag571
ag374
ag375
aa(lp1358
g1177
ag571
ag374
ag377
aa(lp1359
g1177
ag571
ag374
ag379
aa(lp1360
g1177
ag571
ag374
ag381
aa(lp1361
g1177
ag571
ag374
ag383
aa(lp1362
g1177
ag571
ag385
ag375
aa(lp1363
g1177
ag571
ag385
ag377
aa(lp1364
g1177
ag571
ag385
ag379
aa(lp1365
g1177
ag571
ag385
ag381
aa(lp1366
g1177
ag571
ag385
ag383
aa(lp1367
g1177
ag571
ag391
ag375
aa(lp1368
g1177
ag571
ag391
ag377
aa(lp1369
g1177
ag571
ag391
ag379
aa(lp1370
g1177
ag571
ag391
ag381
aa(lp1371
g1177
ag571
ag391
ag383
aa(lp1372
g1177
ag571
ag397
ag375
aa(lp1373
g1177
ag571
ag397
ag377
aa(lp1374
g1177
ag571
ag397
ag379
aa(lp1375
g1177
ag571
ag397
ag381
aa(lp1376
g1177
ag571
ag397
ag383
aa(lp1377
g1177
ag592
ag374
ag375
aa(lp1378
g1177
ag592
ag374
ag377
aa(lp1379
g1177
ag592
ag374
ag379
aa(lp1380
g1177
ag592
ag374
ag381
aa(lp1381
g1177
ag592
ag374
ag383
aa(lp1382
g1177
ag592
ag385
ag375
aa(lp1383
g1177
ag592
ag385
ag377
aa(lp1384
g1177
ag592
ag385
ag379
aa(lp1385
g1177
ag592
ag385
ag381
aa(lp1386
g1177
ag592
ag385
ag383
aa(lp1387
g1177
ag592
ag391
ag375
aa(lp1388
g1177
ag592
ag391
ag377
aa(lp1389
g1177
ag592
ag391
ag379
aa(lp1390
g1177
ag592
ag391
ag381
aa(lp1391
g1177
ag592
ag391
ag383
aa(lp1392
g1177
ag592
ag397
ag375
aa(lp1393
g1177
ag592
ag397
ag377
aa(lp1394
g1177
ag592
ag397
ag379
aa(lp1395
g1177
ag592
ag397
ag381
aa(lp1396
g1177
ag592
ag397
ag383
aa(lp1397
g1177
ag613
ag374
ag375
aa(lp1398
g1177
ag613
ag374
ag377
aa(lp1399
g1177
ag613
ag374
ag379
aa(lp1400
g1177
ag613
ag374
ag381
aa(lp1401
g1177
ag613
ag374
ag383
aa(lp1402
g1177
ag613
ag385
ag375
aa(lp1403
g1177
ag613
ag385
ag377
aa(lp1404
g1177
ag613
ag385
ag379
aa(lp1405
g1177
ag613
ag385
ag381
aa(lp1406
g1177
ag613
ag385
ag383
aa(lp1407
g1177
ag613
ag391
ag375
aa(lp1408
g1177
ag613
ag391
ag377
aa(lp1409
g1177
ag613
ag391
ag379
aa(lp1410
g1177
ag613
ag391
ag381
aa(lp1411
g1177
ag613
ag391
ag383
aa(lp1412
g1177
ag613
ag397
ag375
aa(lp1413
g1177
ag613
ag397
ag377
aa(lp1414
g1177
ag613
ag397
ag379
aa(lp1415
g1177
ag613
ag397
ag381
aa(lp1416
g1177
ag613
ag397
ag383
aa(lp1417
g1177
ag634
ag374
ag375
aa(lp1418
g1177
ag634
ag374
ag377
aa(lp1419
g1177
ag634
ag374
ag379
aa(lp1420
g1177
ag634
ag374
ag381
aa(lp1421
g1177
ag634
ag374
ag383
aa(lp1422
g1177
ag634
ag385
ag375
aa(lp1423
g1177
ag634
ag385
ag377
aa(lp1424
g1177
ag634
ag385
ag379
aa(lp1425
g1177
ag634
ag385
ag381
aa(lp1426
g1177
ag634
ag385
ag383
aa(lp1427
g1177
ag634
ag391
ag375
aa(lp1428
g1177
ag634
ag391
ag377
aa(lp1429
g1177
ag634
ag391
ag379
aa(lp1430
g1177
ag634
ag391
ag381
aa(lp1431
g1177
ag634
ag391
ag383
aa(lp1432
g1177
ag634
ag397
ag375
aa(lp1433
g1177
ag634
ag397
ag377
aa(lp1434
g1177
ag634
ag397
ag379
aa(lp1435
g1177
ag634
ag397
ag381
aa(lp1436
g1177
ag634
ag397
ag383
aa(lp1437
S'Rustin'
p1438
ag373
ag374
ag375
aa(lp1439
g1438
ag373
ag374
ag377
aa(lp1440
g1438
ag373
ag374
ag379
aa(lp1441
g1438
ag373
ag374
ag381
aa(lp1442
g1438
ag373
ag374
ag383
aa(lp1443
g1438
ag373
ag385
ag375
aa(lp1444
g1438
ag373
ag385
ag377
aa(lp1445
g1438
ag373
ag385
ag379
aa(lp1446
g1438
ag373
ag385
ag381
aa(lp1447
g1438
ag373
ag385
ag383
aa(lp1448
g1438
ag373
ag391
ag375
aa(lp1449
g1438
ag373
ag391
ag377
aa(lp1450
g1438
ag373
ag391
ag379
aa(lp1451
g1438
ag373
ag391
ag381
aa(lp1452
g1438
ag373
ag391
ag383
aa(lp1453
g1438
ag373
ag397
ag375
aa(lp1454
g1438
ag373
ag397
ag377
aa(lp1455
g1438
ag373
ag397
ag379
aa(lp1456
g1438
ag373
ag397
ag381
aa(lp1457
g1438
ag373
ag397
ag383
aa(lp1458
g1438
ag403
ag374
ag375
aa(lp1459
g1438
ag403
ag374
ag377
aa(lp1460
g1438
ag403
ag374
ag379
aa(lp1461
g1438
ag403
ag374
ag381
aa(lp1462
g1438
ag403
ag374
ag383
aa(lp1463
g1438
ag403
ag385
ag375
aa(lp1464
g1438
ag403
ag385
ag377
aa(lp1465
g1438
ag403
ag385
ag379
aa(lp1466
g1438
ag403
ag385
ag381
aa(lp1467
g1438
ag403
ag385
ag383
aa(lp1468
g1438
ag403
ag391
ag375
aa(lp1469
g1438
ag403
ag391
ag377
aa(lp1470
g1438
ag403
ag391
ag379
aa(lp1471
g1438
ag403
ag391
ag381
aa(lp1472
g1438
ag403
ag391
ag383
aa(lp1473
g1438
ag403
ag397
ag375
aa(lp1474
g1438
ag403
ag397
ag377
aa(lp1475
g1438
ag403
ag397
ag379
aa(lp1476
g1438
ag403
ag397
ag381
aa(lp1477
g1438
ag403
ag397
ag383
aa(lp1478
g1438
ag424
ag374
ag375
aa(lp1479
g1438
ag424
ag374
ag377
aa(lp1480
g1438
ag424
ag374
ag379
aa(lp1481
g1438
ag424
ag374
ag381
aa(lp1482
g1438
ag424
ag374
ag383
aa(lp1483
g1438
ag424
ag385
ag375
aa(lp1484
g1438
ag424
ag385
ag377
aa(lp1485
g1438
ag424
ag385
ag379
aa(lp1486
g1438
ag424
ag385
ag381
aa(lp1487
g1438
ag424
ag385
ag383
aa(lp1488
g1438
ag424
ag391
ag375
aa(lp1489
g1438
ag424
ag391
ag377
aa(lp1490
g1438
ag424
ag391
ag379
aa(lp1491
g1438
ag424
ag391
ag381
aa(lp1492
g1438
ag424
ag391
ag383
aa(lp1493
g1438
ag424
ag397
ag375
aa(lp1494
g1438
ag424
ag397
ag377
aa(lp1495
g1438
ag424
ag397
ag379
aa(lp1496
g1438
ag424
ag397
ag381
aa(lp1497
g1438
ag424
ag397
ag383
aa(lp1498
g1438
ag445
ag374
ag375
aa(lp1499
g1438
ag445
ag374
ag377
aa(lp1500
g1438
ag445
ag374
ag379
aa(lp1501
g1438
ag445
ag374
ag381
aa(lp1502
g1438
ag445
ag374
ag383
aa(lp1503
g1438
ag445
ag385
ag375
aa(lp1504
g1438
ag445
ag385
ag377
aa(lp1505
g1438
ag445
ag385
ag379
aa(lp1506
g1438
ag445
ag385
ag381
aa(lp1507
g1438
ag445
ag385
ag383
aa(lp1508
g1438
ag445
ag391
ag375
aa(lp1509
g1438
ag445
ag391
ag377
aa(lp1510
g1438
ag445
ag391
ag379
aa(lp1511
g1438
ag445
ag391
ag381
aa(lp1512
g1438
ag445
ag391
ag383
aa(lp1513
g1438
ag445
ag397
ag375
aa(lp1514
g1438
ag445
ag397
ag377
aa(lp1515
g1438
ag445
ag397
ag379
aa(lp1516
g1438
ag445
ag397
ag381
aa(lp1517
g1438
ag445
ag397
ag383
aa(lp1518
g1438
ag466
ag374
ag375
aa(lp1519
g1438
ag466
ag374
ag377
aa(lp1520
g1438
ag466
ag374
ag379
aa(lp1521
g1438
ag466
ag374
ag381
aa(lp1522
g1438
ag466
ag374
ag383
aa(lp1523
g1438
ag466
ag385
ag375
aa(lp1524
g1438
ag466
ag385
ag377
aa(lp1525
g1438
ag466
ag385
ag379
aa(lp1526
g1438
ag466
ag385
ag381
aa(lp1527
g1438
ag466
ag385
ag383
aa(lp1528
g1438
ag466
ag391
ag375
aa(lp1529
g1438
ag466
ag391
ag377
aa(lp1530
g1438
ag466
ag391
ag379
aa(lp1531
g1438
ag466
ag391
ag381
aa(lp1532
g1438
ag466
ag391
ag383
aa(lp1533
g1438
ag466
ag397
ag375
aa(lp1534
g1438
ag466
ag397
ag377
aa(lp1535
g1438
ag466
ag397
ag379
aa(lp1536
g1438
ag466
ag397
ag381
aa(lp1537
g1438
ag466
ag397
ag383
aa(lp1538
g1438
ag487
ag374
ag375
aa(lp1539
g1438
ag487
ag374
ag377
aa(lp1540
g1438
ag487
ag374
ag379
aa(lp1541
g1438
ag487
ag374
ag381
aa(lp1542
g1438
ag487
ag374
ag383
aa(lp1543
g1438
ag487
ag385
ag375
aa(lp1544
g1438
ag487
ag385
ag377
aa(lp1545
g1438
ag487
ag385
ag379
aa(lp1546
g1438
ag487
ag385
ag381
aa(lp1547
g1438
ag487
ag385
ag383
aa(lp1548
g1438
ag487
ag391
ag375
aa(lp1549
g1438
ag487
ag391
ag377
aa(lp1550
g1438
ag487
ag391
ag379
aa(lp1551
g1438
ag487
ag391
ag381
aa(lp1552
g1438
ag487
ag391
ag383
aa(lp1553
g1438
ag487
ag397
ag375
aa(lp1554
g1438
ag487
ag397
ag377
aa(lp1555
g1438
ag487
ag397
ag379
aa(lp1556
g1438
ag487
ag397
ag381
aa(lp1557
g1438
ag487
ag397
ag383
aa(lp1558
g1438
ag508
ag374
ag375
aa(lp1559
g1438
ag508
ag374
ag377
aa(lp1560
g1438
ag508
ag374
ag379
aa(lp1561
g1438
ag508
ag374
ag381
aa(lp1562
g1438
ag508
ag374
ag383
aa(lp1563
g1438
ag508
ag385
ag375
aa(lp1564
g1438
ag508
ag385
ag377
aa(lp1565
g1438
ag508
ag385
ag379
aa(lp1566
g1438
ag508
ag385
ag381
aa(lp1567
g1438
ag508
ag385
ag383
aa(lp1568
g1438
ag508
ag391
ag375
aa(lp1569
g1438
ag508
ag391
ag377
aa(lp1570
g1438
ag508
ag391
ag379
aa(lp1571
g1438
ag508
ag391
ag381
aa(lp1572
g1438
ag508
ag391
ag383
aa(lp1573
g1438
ag508
ag397
ag375
aa(lp1574
g1438
ag508
ag397
ag377
aa(lp1575
g1438
ag508
ag397
ag379
aa(lp1576
g1438
ag508
ag397
ag381
aa(lp1577
g1438
ag508
ag397
ag383
aa(lp1578
g1438
ag529
ag374
ag375
aa(lp1579
g1438
ag529
ag374
ag377
aa(lp1580
g1438
ag529
ag374
ag379
aa(lp1581
g1438
ag529
ag374
ag381
aa(lp1582
g1438
ag529
ag374
ag383
aa(lp1583
g1438
ag529
ag385
ag375
aa(lp1584
g1438
ag529
ag385
ag377
aa(lp1585
g1438
ag529
ag385
ag379
aa(lp1586
g1438
ag529
ag385
ag381
aa(lp1587
g1438
ag529
ag385
ag383
aa(lp1588
g1438
ag529
ag391
ag375
aa(lp1589
g1438
ag529
ag391
ag377
aa(lp1590
g1438
ag529
ag391
ag379
aa(lp1591
g1438
ag529
ag391
ag381
aa(lp1592
g1438
ag529
ag391
ag383
aa(lp1593
g1438
ag529
ag397
ag375
aa(lp1594
g1438
ag529
ag397
ag377
aa(lp1595
g1438
ag529
ag397
ag379
aa(lp1596
g1438
ag529
ag397
ag381
aa(lp1597
g1438
ag529
ag397
ag383
aa(lp1598
g1438
ag550
ag374
ag375
aa(lp1599
g1438
ag550
ag374
ag377
aa(lp1600
g1438
ag550
ag374
ag379
aa(lp1601
g1438
ag550
ag374
ag381
aa(lp1602
g1438
ag550
ag374
ag383
aa(lp1603
g1438
ag550
ag385
ag375
aa(lp1604
g1438
ag550
ag385
ag377
aa(lp1605
g1438
ag550
ag385
ag379
aa(lp1606
g1438
ag550
ag385
ag381
aa(lp1607
g1438
ag550
ag385
ag383
aa(lp1608
g1438
ag550
ag391
ag375
aa(lp1609
g1438
ag550
ag391
ag377
aa(lp1610
g1438
ag550
ag391
ag379
aa(lp1611
g1438
ag550
ag391
ag381
aa(lp1612
g1438
ag550
ag391
ag383
aa(lp1613
g1438
ag550
ag397
ag375
aa(lp1614
g1438
ag550
ag397
ag377
aa(lp1615
g1438
ag550
ag397
ag379
aa(lp1616
g1438
ag550
ag397
ag381
aa(lp1617
g1438
ag550
ag397
ag383
aa(lp1618
g1438
ag571
ag374
ag375
aa(lp1619
g1438
ag571
ag374
ag377
aa(lp1620
g1438
ag571
ag374
ag379
aa(lp1621
g1438
ag571
ag374
ag381
aa(lp1622
g1438
ag571
ag374
ag383
aa(lp1623
g1438
ag571
ag385
ag375
aa(lp1624
g1438
ag571
ag385
ag377
aa(lp1625
g1438
ag571
ag385
ag379
aa(lp1626
g1438
ag571
ag385
ag381
aa(lp1627
g1438
ag571
ag385
ag383
aa(lp1628
g1438
ag571
ag391
ag375
aa(lp1629
g1438
ag571
ag391
ag377
aa(lp1630
g1438
ag571
ag391
ag379
aa(lp1631
g1438
ag571
ag391
ag381
aa(lp1632
g1438
ag571
ag391
ag383
aa(lp1633
g1438
ag571
ag397
ag375
aa(lp1634
g1438
ag571
ag397
ag377
aa(lp1635
g1438
ag571
ag397
ag379
aa(lp1636
g1438
ag571
ag397
ag381
aa(lp1637
g1438
ag571
ag397
ag383
aa(lp1638
g1438
ag592
ag374
ag375
aa(lp1639
g1438
ag592
ag374
ag377
aa(lp1640
g1438
ag592
ag374
ag379
aa(lp1641
g1438
ag592
ag374
ag381
aa(lp1642
g1438
ag592
ag374
ag383
aa(lp1643
g1438
ag592
ag385
ag375
aa(lp1644
g1438
ag592
ag385
ag377
aa(lp1645
g1438
ag592
ag385
ag379
aa(lp1646
g1438
ag592
ag385
ag381
aa(lp1647
g1438
ag592
ag385
ag383
aa(lp1648
g1438
ag592
ag391
ag375
aa(lp1649
g1438
ag592
ag391
ag377
aa(lp1650
g1438
ag592
ag391
ag379
aa(lp1651
g1438
ag592
ag391
ag381
aa(lp1652
g1438
ag592
ag391
ag383
aa(lp1653
g1438
ag592
ag397
ag375
aa(lp1654
g1438
ag592
ag397
ag377
aa(lp1655
g1438
ag592
ag397
ag379
aa(lp1656
g1438
ag592
ag397
ag381
aa(lp1657
g1438
ag592
ag397
ag383
aa(lp1658
g1438
ag613
ag374
ag375
aa(lp1659
g1438
ag613
ag374
ag377
aa(lp1660
g1438
ag613
ag374
ag379
aa(lp1661
g1438
ag613
ag374
ag381
aa(lp1662
g1438
ag613
ag374
ag383
aa(lp1663
g1438
ag613
ag385
ag375
aa(lp1664
g1438
ag613
ag385
ag377
aa(lp1665
g1438
ag613
ag385
ag379
aa(lp1666
g1438
ag613
ag385
ag381
aa(lp1667
g1438
ag613
ag385
ag383
aa(lp1668
g1438
ag613
ag391
ag375
aa(lp1669
g1438
ag613
ag391
ag377
aa(lp1670
g1438
ag613
ag391
ag379
aa(lp1671
g1438
ag613
ag391
ag381
aa(lp1672
g1438
ag613
ag391
ag383
aa(lp1673
g1438
ag613
ag397
ag375
aa(lp1674
g1438
ag613
ag397
ag377
aa(lp1675
g1438
ag613
ag397
ag379
aa(lp1676
g1438
ag613
ag397
ag381
aa(lp1677
g1438
ag613
ag397
ag383
aa(lp1678
g1438
ag634
ag374
ag375
aa(lp1679
g1438
ag634
ag374
ag377
aa(lp1680
g1438
ag634
ag374
ag379
aa(lp1681
g1438
ag634
ag374
ag381
aa(lp1682
g1438
ag634
ag374
ag383
aa(lp1683
g1438
ag634
ag385
ag375
aa(lp1684
g1438
ag634
ag385
ag377
aa(lp1685
g1438
ag634
ag385
ag379
aa(lp1686
g1438
ag634
ag385
ag381
aa(lp1687
g1438
ag634
ag385
ag383
aa(lp1688
g1438
ag634
ag391
ag375
aa(lp1689
g1438
ag634
ag391
ag377
aa(lp1690
g1438
ag634
ag391
ag379
aa(lp1691
g1438
ag634
ag391
ag381
aa(lp1692
g1438
ag634
ag391
ag383
aa(lp1693
g1438
ag634
ag397
ag375
aa(lp1694
g1438
ag634
ag397
ag377
aa(lp1695
g1438
ag634
ag397
ag379
aa(lp1696
g1438
ag634
ag397
ag381
aa(lp1697
g1438
ag634
ag397
ag383
aasS'orlando_club'
p1698
(lp1699
(lp1700
S'Waheeb'
p1701
aS'Bakr'
p1702
aS'Pulse'
p1703
aa(lp1704
g1701
ag1702
aS'nightclub'
p1705
aa(lp1706
g1701
aS'al-Baghdadi'
p1707
ag1703
aa(lp1708
g1701
ag1707
ag1705
aa(lp1709
g1701
aS'Omar'
p1710
ag1703
aa(lp1711
g1701
ag1710
ag1705
aa(lp1712
g1701
aS'Mateen'
p1713
ag1703
aa(lp1714
g1701
ag1713
ag1705
aa(lp1715
g1701
aS'Islamic State of Iraq and the Levant'
p1716
ag1703
aa(lp1717
g1701
ag1716
ag1705
aa(lp1718
g1701
aS'ISIL'
p1719
ag1703
aa(lp1720
g1701
ag1719
ag1705
aasS'vtshooting'
p1721
(lp1722
(lp1723
S'Seung-hui'
p1724
aS'Emily'
p1725
aS'Ambler'
p1726
aa(lp1727
g1724
ag1725
aS'Johnston'
p1728
aa(lp1729
g1724
ag1725
aS'Hall'
p1730
aa(lp1731
g1724
aS'Hilscher'
p1732
ag1726
aa(lp1733
g1724
ag1732
ag1728
aa(lp1734
g1724
ag1732
ag1730
aa(lp1735
S'Seung-hui Cho'
p1736
ag1725
ag1726
aa(lp1737
g1736
ag1725
ag1728
aa(lp1738
g1736
ag1725
ag1730
aa(lp1739
g1736
ag1732
ag1726
aa(lp1740
g1736
ag1732
ag1728
aa(lp1741
g1736
ag1732
ag1730
aa(lp1742
S'Seung-hui'
p1743
aS'Ryan'
p1744
aS'Ambler'
p1745
aa(lp1746
g1743
ag1744
aS'Johnston'
p1747
aa(lp1748
g1743
ag1744
aS'Hall'
p1749
aa(lp1750
g1743
aS'Clark'
p1751
ag1745
aa(lp1752
g1743
ag1751
ag1747
aa(lp1753
g1743
ag1751
ag1749
aa(lp1754
S'Seung-hui Cho'
p1755
ag1744
ag1745
aa(lp1756
g1755
ag1744
ag1747
aa(lp1757
g1755
ag1744
ag1749
aa(lp1758
g1755
ag1751
ag1745
aa(lp1759
g1755
ag1751
ag1747
aa(lp1760
g1755
ag1751
ag1749
aa(lp1761
S'Seung-hui'
p1762
aS'Ambler'
p1763
aS'NBC'
p1764
aS'Norris'
p1765
aa(lp1766
g1762
ag1763
ag1764
aS'Hall'
p1767
aa(lp1768
g1762
aS'Johnston'
p1769
ag1764
ag1765
aa(lp1770
g1762
ag1769
ag1764
ag1767
aa(lp1771
S'Seung-hui Cho'
p1772
ag1763
ag1764
ag1765
aa(lp1773
g1772
ag1763
ag1764
ag1767
aa(lp1774
g1772
ag1769
ag1764
ag1765
aa(lp1775
g1772
ag1769
ag1764
ag1767
aa(lp1776
S'Seung-hui'
p1777
aS'manifesto'
p1778
aS'NBC'
p1779
aa(lp1780
S'Seung-hui Cho'
p1781
ag1778
ag1779
aa(lp1782
S'Seung-hui'
p1783
aS'video'
p1784
aS'NBC'
p1785
aa(lp1786
S'Seung-hui Cho'
p1787
ag1784
ag1785
aa(lp1788
S'Seung-hui'
p1789
aS'Haiyan'
p1790
aS'Hall'
p1791
aa(lp1792
g1789
ag1790
aS'Norris'
p1793
aa(lp1794
g1789
aS'Cheng'
p1795
ag1791
aa(lp1796
g1789
ag1795
ag1793
aa(lp1797
S'Seung-hui Cho'
p1798
ag1790
ag1791
aa(lp1799
g1798
ag1790
ag1793
aa(lp1800
g1798
ag1795
ag1791
aa(lp1801
g1798
ag1795
ag1793
aa(lp1802
S'Seung-hui'
p1803
aS'Jamie'
p1804
aS'Hall'
p1805
aa(lp1806
g1803
ag1804
aS'Norris'
p1807
aa(lp1808
g1803
aS'Bishop'
p1809
ag1805
aa(lp1810
g1803
ag1809
ag1807
aa(lp1811
S'Seung-hui Cho'
p1812
ag1804
ag1805
aa(lp1813
g1812
ag1804
ag1807
aa(lp1814
g1812
ag1809
ag1805
aa(lp1815
g1812
ag1809
ag1807
aa(lp1816
S'Seung-hui'
p1817
aS'Loganathan'
p1818
aS'Hall'
p1819
aa(lp1820
g1817
ag1818
aS'Norris'
p1821
aa(lp1822
S'Seung-hui Cho'
p1823
ag1818
ag1819
aa(lp1824
g1823
ag1818
ag1821
aa(lp1825
S'Seung-hui'
p1826
aS'Jocelyne'
p1827
aS'Norris'
p1828
aa(lp1829
g1826
ag1827
aS'Hall'
p1830
aa(lp1831
g1826
aS'Couture-Nowak'
p1832
ag1828
aa(lp1833
g1826
ag1832
ag1830
aa(lp1834
S'Seung-hui Cho'
p1835
ag1827
ag1828
aa(lp1836
g1835
ag1827
ag1830
aa(lp1837
g1835
ag1832
ag1828
aa(lp1838
g1835
ag1832
ag1830
aa(lp1839
S'Seung-hui'
p1840
aS'Liviu'
p1841
aS'Norris Hall'
p1842
aa(lp1843
g1840
ag1841
aS'Norris'
p1844
aa(lp1845
g1840
aS'Librescu'
p1846
ag1842
aa(lp1847
g1840
ag1846
ag1844
aa(lp1848
S'Seung-hui Cho'
p1849
ag1841
ag1842
aa(lp1850
g1849
ag1841
ag1844
aa(lp1851
g1849
ag1846
ag1842
aa(lp1852
g1849
ag1846
ag1844
aa(lp1853
S'Seung-hui'
p1854
aS'Kevin Granata'
p1855
aS'Norris'
p1856
aa(lp1857
g1854
ag1855
aS'Hall'
p1858
aa(lp1859
g1854
aS'Kevin'
p1860
ag1856
aa(lp1861
g1854
ag1860
ag1858
aa(lp1862
S'Seung-hui Cho'
p1863
ag1855
ag1856
aa(lp1864
g1863
ag1855
ag1858
aa(lp1865
g1863
ag1860
ag1856
aa(lp1866
g1863
ag1860
ag1858
aa(lp1867
S'Anxiety'
p1868
aS'Seung-hui'
p1869
aS'shooting'
p1870
aa(lp1871
g1868
ag1869
aS'attack'
p1872
aa(lp1873
g1868
ag1869
aS'kill'
p1874
aa(lp1875
g1868
ag1869
aS'killing'
p1876
aa(lp1877
g1868
aS'Cho'
p1878
ag1870
aa(lp1879
g1868
ag1878
ag1872
aa(lp1880
g1868
ag1878
ag1874
aa(lp1881
g1868
ag1878
ag1876
aa(lp1882
S'disorder'
p1883
ag1869
ag1870
aa(lp1884
g1883
ag1869
ag1872
aa(lp1885
g1883
ag1869
ag1874
aa(lp1886
g1883
ag1869
ag1876
aa(lp1887
g1883
ag1878
ag1870
aa(lp1888
g1883
ag1878
ag1872
aa(lp1889
g1883
ag1878
ag1874
aa(lp1890
g1883
ag1878
ag1876
aa(lp1891
S'mental'
p1892
ag1869
ag1870
aa(lp1893
g1892
ag1869
ag1872
aa(lp1894
g1892
ag1869
ag1874
aa(lp1895
g1892
ag1869
ag1876
aa(lp1896
g1892
ag1878
ag1870
aa(lp1897
g1892
ag1878
ag1872
aa(lp1898
g1892
ag1878
ag1874
aa(lp1899
g1892
ag1878
ag1876
aa(lp1900
S'ill'
p1901
ag1869
ag1870
aa(lp1902
g1901
ag1869
ag1872
aa(lp1903
g1901
ag1869
ag1874
aa(lp1904
g1901
ag1869
ag1876
aa(lp1905
g1901
ag1878
ag1870
aa(lp1906
g1901
ag1878
ag1872
aa(lp1907
g1901
ag1878
ag1874
aa(lp1908
g1901
ag1878
ag1876
aa(lp1909
S'therapy'
p1910
ag1869
ag1870
aa(lp1911
g1910
ag1869
ag1872
aa(lp1912
g1910
ag1869
ag1874
aa(lp1913
g1910
ag1869
ag1876
aa(lp1914
g1910
ag1878
ag1870
aa(lp1915
g1910
ag1878
ag1872
aa(lp1916
g1910
ag1878
ag1874
aa(lp1917
g1910
ag1878
ag1876
aa(lp1918
S'autism'
p1919
ag1869
ag1870
aa(lp1920
g1919
ag1869
ag1872
aa(lp1921
g1919
ag1869
ag1874
aa(lp1922
g1919
ag1869
ag1876
aa(lp1923
g1919
ag1878
ag1870
aa(lp1924
g1919
ag1878
ag1872
aa(lp1925
g1919
ag1878
ag1874
aa(lp1926
g1919
ag1878
ag1876
aa(lp1927
S'Korea'
p1928
aS'Seung-hui'
p1929
aS'US'
p1930
aa(lp1931
g1928
ag1929
aS'Centreville'
p1932
aa(lp1933
g1928
ag1929
aS'Virginia'
p1934
aa(lp1935
g1928
aS'Seung-hui Cho'
p1936
ag1930
aa(lp1937
g1928
ag1936
ag1932
aa(lp1938
g1928
ag1936
ag1934
aa(lp1939
S'Korean'
p1940
aS'Seung-hui'
p1941
aS'US'
p1942
aa(lp1943
g1940
ag1941
aS'Centreville'
p1944
aa(lp1945
g1940
ag1941
aS'Virginia'
p1946
aa(lp1947
g1940
aS'Seung-hui Cho'
p1948
ag1942
aa(lp1949
g1940
ag1948
ag1944
aa(lp1950
g1940
ag1948
ag1946
aa(lp1951
S'Seung-hui'
p1952
aS"Cho's family"
p1953
aS'victims'
p1954
aa(lp1955
S'Seung-hui Cho'
p1956
ag1953
ag1954
aa(lp1957
S'Seung-hui'
p1958
aS'Sun-Kyung'
p1959
aS'victims'
p1960
aa(lp1961
S'Seung-hui Cho'
p1962
ag1959
ag1960
aa(lp1963
S'shooting'
p1964
aS'National Instant Criminal Background Check System'
p1965
aS'George'
p1966
aa(lp1967
g1964
ag1965
aS'Bush'
p1968
aa(lp1969
g1964
aS'NICS'
p1970
ag1966
aa(lp1971
g1964
ag1970
ag1968
aa(lp1972
S'gun'
p1973
ag1965
ag1966
aa(lp1974
g1973
ag1965
ag1968
aa(lp1975
g1973
ag1970
ag1966
aa(lp1976
g1973
ag1970
ag1968
aa(lp1977
S'shotting'
p1978
aS'FERPA'
p1979
aS'U.S. Department of Education'
p1980
aa(lp1981
g1978
ag1979
aS'ED'
p1982
aa(lp1983
g1978
ag1979
aS'DoED'
p1984
aa(lp1985
g1978
aS'Family Educational Rights and Privacy Act'
p1986
ag1980
aa(lp1987
g1978
ag1986
ag1982
aa(lp1988
g1978
ag1986
ag1984
aa(lp1989
S'Kaine'
p1990
aS'Tom'
p1991
aS'shooting'
p1992
aa(lp1993
g1990
ag1991
aS'gun'
p1994
aa(lp1995
g1990
aS'Ridge'
p1996
ag1992
aa(lp1997
g1990
ag1996
ag1994
aa(lp1998
S'Tim'
p1999
ag1991
ag1992
aa(lp2000
g1999
ag1991
ag1994
aa(lp2001
g1999
ag1996
ag1992
aa(lp2002
g1999
ag1996
ag1994
aa(lp2003
S'shooting'
p2004
aS'National Instant Criminal Background Check System'
p2005
aS'Brady'
p2006
aa(lp2007
g2004
aS'NICS'
p2008
ag2006
aa(lp2009
S'gun'
p2010
ag2005
ag2006
aa(lp2011
g2010
ag2008
ag2006
aa(lp2012
S'shooting'
p2013
aS'National Instant Criminal Background Check System'
p2014
aS'National Rifle Association'
p2015
aa(lp2016
g2013
ag2014
aS'NRA'
p2017
aa(lp2018
g2013
aS'NICS'
p2019
ag2015
aa(lp2020
g2013
ag2019
ag2017
aa(lp2021
S'gun'
p2022
ag2014
ag2015
aa(lp2023
g2022
ag2014
ag2017
aa(lp2024
g2022
ag2019
ag2015
aa(lp2025
g2022
ag2019
ag2017
aasS'Bernardino'
p2026
(lp2027
(lp2028
S'Enrique'
p2029
aS'Syed'
p2030
aS'Bernardino'
p2031
aa(lp2032
g2029
ag2030
aS'Inland'
p2033
aa(lp2034
g2029
aS'Rizwan'
p2035
ag2031
aa(lp2036
g2029
ag2035
ag2033
aa(lp2037
g2029
aS'Farook'
p2038
ag2031
aa(lp2039
g2029
ag2038
ag2033
aa(lp2040
g2029
aS'Tashfeen'
p2041
ag2031
aa(lp2042
g2029
ag2041
ag2033
aa(lp2043
g2029
aS'Malik'
p2044
ag2031
aa(lp2045
g2029
ag2044
ag2033
aa(lp2046
S'Marquez'
p2047
ag2030
ag2031
aa(lp2048
g2047
ag2030
ag2033
aa(lp2049
g2047
ag2035
ag2031
aa(lp2050
g2047
ag2035
ag2033
aa(lp2051
g2047
ag2038
ag2031
aa(lp2052
g2047
ag2038
ag2033
aa(lp2053
g2047
ag2041
ag2031
aa(lp2054
g2047
ag2041
ag2033
aa(lp2055
g2047
ag2044
ag2031
aa(lp2056
g2047
ag2044
ag2033
aasS'wall'
p2057
(lp2058
(lp2059
S'Income'
p2060
aS'adbusters'
p2061
aS'Zuccotti'
p2062
aa(lp2063
g2060
ag2061
aS'Park'
p2064
aa(lp2065
g2060
ag2061
aS'new'
p2066
aa(lp2067
g2060
ag2061
aS'york'
p2068
aa(lp2069
g2060
ag2061
aS'new york'
p2070
aa(lp2071
S'inequality'
p2072
ag2061
ag2062
aa(lp2073
g2072
ag2061
ag2064
aa(lp2074
g2072
ag2061
ag2066
aa(lp2075
g2072
ag2061
ag2068
aa(lp2076
g2072
ag2061
ag2070
aasS'church'
p2077
(lp2078
(lp2079
S'White supremacy'
p2080
aS'Dylann'
p2081
aS'Clementa'
p2082
aa(lp2083
g2080
ag2081
aS'Pinckney'
p2084
aa(lp2085
g2080
ag2081
aS'Charleston'
p2086
aa(lp2087
g2080
ag2081
aS'church'
p2088
aa(lp2089
g2080
aS'Roof'
p2090
ag2082
aa(lp2091
g2080
ag2090
ag2084
aa(lp2092
g2080
ag2090
ag2086
aa(lp2093
g2080
ag2090
ag2088
aa(lp2094
S'racism'
p2095
ag2081
ag2082
aa(lp2096
g2095
ag2081
ag2084
aa(lp2097
g2095
ag2081
ag2086
aa(lp2098
g2095
ag2081
ag2088
aa(lp2099
g2095
ag2090
ag2082
aa(lp2100
g2095
ag2090
ag2084
aa(lp2101
g2095
ag2090
ag2086
aa(lp2102
g2095
ag2090
ag2088
aasS'isla'
p2103
(lp2104
(lp2105
S'manifesto'
p2106
aS'Elliot'
p2107
aS'UCSB'
p2108
aa(lp2109
g2106
ag2107
aS'women'
p2110
aa(lp2111
g2106
aS'Rodger'
p2112
ag2108
aa(lp2113
g2106
ag2112
ag2110
aa(lp2114
S'rejected'
p2115
ag2107
ag2108
aa(lp2116
g2115
ag2107
ag2110
aa(lp2117
g2115
ag2112
ag2108
aa(lp2118
g2115
ag2112
ag2110
aa(lp2119
S'women'
p2120
ag2107
ag2108
aa(lp2121
g2120
ag2107
ag2110
aa(lp2122
g2120
ag2112
ag2108
aa(lp2123
g2120
ag2112
ag2110
aa(lp2124
S'retribution'
p2125
ag2107
ag2108
aa(lp2126
g2125
ag2107
ag2110
aa(lp2127
g2125
ag2112
ag2108
aa(lp2128
g2125
ag2112
ag2110
aa(lp2129
S'Misogyny'
p2130
ag2107
ag2108
aa(lp2131
g2130
ag2107
ag2110
aa(lp2132
g2130
ag2112
ag2108
aa(lp2133
g2130
ag2112
ag2110
aasS'911'
p2134
(lp2135
(lp2136
S'Israel'
p2137
aS'Laden'
p2138
aS'Al-qaeda'
p2139
aS'United States'
p2140
aa(lp2141
g2137
ag2138
ag2139
aS'us'
p2142
aa(lp2143
S'Saudi'
p2144
aS'Laden'
p2145
aS'Al-qaeda'
p2146
aS'United States'
p2147
aa(lp2148
g2144
ag2145
ag2146
aS'us'
p2149
aa(lp2150
S'Arabia'
p2151
ag2145
ag2146
ag2147
aa(lp2152
g2151
ag2145
ag2146
ag2149
aa(lp2153
S'Iraq'
p2154
aS'Osama bin Laden'
p2155
aS'Al-qaeda'
p2156
aS'United States'
p2157
aa(lp2158
S'Laden'
p2159
aS'Al-qaeda'
p2160
aS'airliners'
p2161
aS'World Trade Center'
p2162
aS'New York'
p2163
aS'World trade center site'
p2164
aa(lp2165
g2159
ag2160
ag2161
ag2162
ag2163
aS'Memorial competition'
p2166
aa(lp2167
g2159
ag2160
aS'American Airlines'
p2168
ag2162
ag2163
ag2164
aa(lp2169
g2159
ag2160
ag2168
ag2162
ag2163
ag2166
aa(lp2170
g2159
ag2160
aS'Fligh 11'
p2171
ag2162
ag2163
ag2164
aa(lp2172
g2159
ag2160
ag2171
ag2162
ag2163
ag2166
aa(lp2173
g2159
ag2160
aS'United Airlines'
p2174
ag2162
ag2163
ag2164
aa(lp2175
g2159
ag2160
ag2174
ag2162
ag2163
ag2166
aa(lp2176
g2159
ag2160
aS'Flight 175'
p2177
ag2162
ag2163
ag2164
aa(lp2178
g2159
ag2160
ag2177
ag2162
ag2163
ag2166
aa(lp2179
S'Laden'
p2180
aS'Al-qaeda'
p2181
aS'airliners'
p2182
aS'Pentagon'
p2183
aS'Arlington'
p2184
aS'pentagon memorial'
p2185
aa(lp2186
g2180
ag2181
ag2182
ag2183
aS'Virginia'
p2187
ag2185
aa(lp2188
g2180
ag2181
aS'American Airlines'
p2189
ag2183
ag2184
ag2185
aa(lp2190
g2180
ag2181
ag2189
ag2183
ag2187
ag2185
aa(lp2191
g2180
ag2181
aS'Fligh 77'
p2192
ag2183
ag2184
ag2185
aa(lp2193
g2180
ag2181
ag2192
ag2183
ag2187
ag2185
aa(lp2194
S'Laden'
p2195
aS'Al-qaeda'
p2196
aS'airliners'
p2197
aS'Washington'
p2198
aS' Flight 93 Memorial'
p2199
aa(lp2200
g2195
ag2196
ag2197
aS'D.C.'
p2201
ag2199
aa(lp2202
g2195
ag2196
ag2197
aS'capitol'
p2203
ag2199
aa(lp2204
g2195
ag2196
ag2197
aS'white house'
p2205
ag2199
aa(lp2206
g2195
ag2196
aS'United Airlines'
p2207
ag2198
ag2199
aa(lp2208
g2195
ag2196
ag2207
ag2201
ag2199
aa(lp2209
g2195
ag2196
ag2207
ag2203
ag2199
aa(lp2210
g2195
ag2196
ag2207
ag2205
ag2199
aa(lp2211
g2195
ag2196
aS'Flight 93'
p2212
ag2198
ag2199
aa(lp2213
g2195
ag2196
ag2212
ag2201
ag2199
aa(lp2214
g2195
ag2196
ag2212
ag2203
ag2199
aa(lp2215
g2195
ag2196
ag2212
ag2205
ag2199
aa(lp2216
S'Laden'
p2217
aS'Al-qaeda'
p2218
aS'airliners'
p2219
aS'Stonycreek Township'
p2220
aS'Flight 93 Memorial'
p2221
aa(lp2222
g2217
ag2218
aS'United Airlines'
p2223
ag2220
ag2221
aa(lp2224
g2217
ag2218
aS'Flight 93'
p2225
ag2220
ag2221
aa(lp2226
S'Laden'
p2227
aS'Mohammed'
p2228
aS'al-shibh'
p2229
aS'Atta'
p2230
aa(lp2231
S'Laden'
p2232
aS'Atef'
p2233
aS'hijacker'
p2234
aa(lp2235
S'Laden'
p2236
aS'Hazmi'
p2237
aS'hani'
p2238
aa(lp2239
g2236
ag2237
aS'hanjour'
p2240
aa(lp2241
g2236
aS'Nawaf'
p2242
ag2238
aa(lp2243
g2236
ag2242
ag2240
aa(lp2244
g2236
aS'al-hazmi'
p2245
ag2238
aa(lp2246
g2236
ag2245
ag2240
aa(lp2247
S'Laden'
p2248
aS'Mihdhar'
p2249
aS'hani'
p2250
aa(lp2251
g2248
ag2249
aS'hanjour'
p2252
aa(lp2253
S'911'
p2254
aS'Osama bin Laden'
p2255
aS'seal'
p2256
aa(lp2257
g2254
ag2255
aS'team six'
p2258
aa(lp2259
g2254
ag2255
aS'us'
p2260
aa(lp2261
g2254
ag2255
aS'navy'
p2262
aa(lp2263
g2254
aS'Laden'
p2264
ag2256
aa(lp2265
g2254
ag2264
ag2258
aa(lp2266
g2254
ag2264
ag2260
aa(lp2267
g2254
ag2264
ag2262
aa(lp2268
S'9/11'
p2269
ag2255
ag2256
aa(lp2270
g2269
ag2255
ag2258
aa(lp2271
g2269
ag2255
ag2260
aa(lp2272
g2269
ag2255
ag2262
aa(lp2273
g2269
ag2264
ag2256
aa(lp2274
g2269
ag2264
ag2258
aa(lp2275
g2269
ag2264
ag2260
aa(lp2276
g2269
ag2264
ag2262
aa(lp2277
S'September 11 attachks'
p2278
ag2255
ag2256
aa(lp2279
g2278
ag2255
ag2258
aa(lp2280
g2278
ag2255
ag2260
aa(lp2281
g2278
ag2255
ag2262
aa(lp2282
g2278
ag2264
ag2256
aa(lp2283
g2278
ag2264
ag2258
aa(lp2284
g2278
ag2264
ag2260
aa(lp2285
g2278
ag2264
ag2262
aa(lp2286
S'Laden'
p2287
aS'911'
p2288
aS'economic'
p2289
aa(lp2290
g2287
ag2288
aS'world market'
p2291
aa(lp2292
g2287
ag2288
aS'DJIA'
p2293
aa(lp2294
g2287
aS'9/11'
p2295
ag2289
aa(lp2296
g2287
ag2295
ag2291
aa(lp2297
g2287
ag2295
ag2293
aa(lp2298
g2287
aS'September 11 attachks'
p2299
ag2289
aa(lp2300
g2287
ag2299
ag2291
aa(lp2301
g2287
ag2299
ag2293
aa(lp2302
S'Al-qaeda'
p2303
ag2288
ag2289
aa(lp2304
g2303
ag2288
ag2291
aa(lp2305
g2303
ag2288
ag2293
aa(lp2306
g2303
ag2295
ag2289
aa(lp2307
g2303
ag2295
ag2291
aa(lp2308
g2303
ag2295
ag2293
aa(lp2309
g2303
ag2299
ag2289
aa(lp2310
g2303
ag2299
ag2291
aa(lp2311
g2303
ag2299
ag2293
aa(lp2312
S'Laden'
p2313
aS'911'
p2314
aS'afghanistan'
p2315
aa(lp2316
g2313
ag2314
aS'iraq'
p2317
aa(lp2318
g2313
ag2314
aS'war'
p2319
aa(lp2320
g2313
aS'9/11'
p2321
ag2315
aa(lp2322
g2313
ag2321
ag2317
aa(lp2323
g2313
ag2321
ag2319
aa(lp2324
g2313
aS'September 11 attachks'
p2325
ag2315
aa(lp2326
g2313
ag2325
ag2317
aa(lp2327
g2313
ag2325
ag2319
aa(lp2328
S'Al-qaeda'
p2329
ag2314
ag2315
aa(lp2330
g2329
ag2314
ag2317
aa(lp2331
g2329
ag2314
ag2319
aa(lp2332
g2329
ag2321
ag2315
aa(lp2333
g2329
ag2321
ag2317
aa(lp2334
g2329
ag2321
ag2319
aa(lp2335
g2329
ag2325
ag2315
aa(lp2336
g2329
ag2325
ag2317
aa(lp2337
g2329
ag2325
ag2319
aasS'baltimore'
p2338
(lp2339
(lp2340
S'Lieutenant'
p2341
aS'death'
p2342
aS'baltimore'
p2343
aS'acquitted'
p2344
aa(lp2345
g2341
ag2342
ag2343
aS'acquittals'
p2346
aa(lp2347
g2341
ag2342
aS'maryland'
p2348
ag2344
aa(lp2349
g2341
ag2342
ag2348
ag2346
aa(lp2350
g2341
aS'homicide'
p2351
ag2343
ag2344
aa(lp2352
g2341
ag2351
ag2343
ag2346
aa(lp2353
g2341
ag2351
ag2348
ag2344
aa(lp2354
g2341
ag2351
ag2348
ag2346
aa(lp2355
g2341
aS'Freddie'
p2356
ag2343
ag2344
aa(lp2357
g2341
ag2356
ag2343
ag2346
aa(lp2358
g2341
ag2356
ag2348
ag2344
aa(lp2359
g2341
ag2356
ag2348
ag2346
aa(lp2360
g2341
aS'Carlos'
p2361
ag2343
ag2344
aa(lp2362
g2341
ag2361
ag2343
ag2346
aa(lp2363
g2341
ag2361
ag2348
ag2344
aa(lp2364
g2341
ag2361
ag2348
ag2346
aa(lp2365
g2341
aS'Gray'
p2366
ag2343
ag2344
aa(lp2367
g2341
ag2366
ag2343
ag2346
aa(lp2368
g2341
ag2366
ag2348
ag2344
aa(lp2369
g2341
ag2366
ag2348
ag2346
aa(lp2370
S'BrianRice'
p2371
ag2342
ag2343
ag2344
aa(lp2372
g2371
ag2342
ag2343
ag2346
aa(lp2373
g2371
ag2342
ag2348
ag2344
aa(lp2374
g2371
ag2342
ag2348
ag2346
aa(lp2375
g2371
ag2351
ag2343
ag2344
aa(lp2376
g2371
ag2351
ag2343
ag2346
aa(lp2377
g2371
ag2351
ag2348
ag2344
aa(lp2378
g2371
ag2351
ag2348
ag2346
aa(lp2379
g2371
ag2356
ag2343
ag2344
aa(lp2380
g2371
ag2356
ag2343
ag2346
aa(lp2381
g2371
ag2356
ag2348
ag2344
aa(lp2382
g2371
ag2356
ag2348
ag2346
aa(lp2383
g2371
ag2361
ag2343
ag2344
aa(lp2384
g2371
ag2361
ag2343
ag2346
aa(lp2385
g2371
ag2361
ag2348
ag2344
aa(lp2386
g2371
ag2361
ag2348
ag2346
aa(lp2387
g2371
ag2366
ag2343
ag2344
aa(lp2388
g2371
ag2366
ag2343
ag2346
aa(lp2389
g2371
ag2366
ag2348
ag2344
aa(lp2390
g2371
ag2366
ag2348
ag2346
aa(lp2391
S'Sergeant'
p2392
ag2342
ag2343
ag2344
aa(lp2393
g2392
ag2342
ag2343
ag2346
aa(lp2394
g2392
ag2342
ag2348
ag2344
aa(lp2395
g2392
ag2342
ag2348
ag2346
aa(lp2396
g2392
ag2351
ag2343
ag2344
aa(lp2397
g2392
ag2351
ag2343
ag2346
aa(lp2398
g2392
ag2351
ag2348
ag2344
aa(lp2399
g2392
ag2351
ag2348
ag2346
aa(lp2400
g2392
ag2356
ag2343
ag2344
aa(lp2401
g2392
ag2356
ag2343
ag2346
aa(lp2402
g2392
ag2356
ag2348
ag2344
aa(lp2403
g2392
ag2356
ag2348
ag2346
aa(lp2404
g2392
ag2361
ag2343
ag2344
aa(lp2405
g2392
ag2361
ag2343
ag2346
aa(lp2406
g2392
ag2361
ag2348
ag2344
aa(lp2407
g2392
ag2361
ag2348
ag2346
aa(lp2408
g2392
ag2366
ag2343
ag2344
aa(lp2409
g2392
ag2366
ag2343
ag2346
aa(lp2410
g2392
ag2366
ag2348
ag2344
aa(lp2411
g2392
ag2366
ag2348
ag2346
aa(lp2412
S'Alicia'
p2413
ag2342
ag2343
ag2344
aa(lp2414
g2413
ag2342
ag2343
ag2346
aa(lp2415
g2413
ag2342
ag2348
ag2344
aa(lp2416
g2413
ag2342
ag2348
ag2346
aa(lp2417
g2413
ag2351
ag2343
ag2344
aa(lp2418
g2413
ag2351
ag2343
ag2346
aa(lp2419
g2413
ag2351
ag2348
ag2344
aa(lp2420
g2413
ag2351
ag2348
ag2346
aa(lp2421
g2413
ag2356
ag2343
ag2344
aa(lp2422
g2413
ag2356
ag2343
ag2346
aa(lp2423
g2413
ag2356
ag2348
ag2344
aa(lp2424
g2413
ag2356
ag2348
ag2346
aa(lp2425
g2413
ag2361
ag2343
ag2344
aa(lp2426
g2413
ag2361
ag2343
ag2346
aa(lp2427
g2413
ag2361
ag2348
ag2344
aa(lp2428
g2413
ag2361
ag2348
ag2346
aa(lp2429
g2413
ag2366
ag2343
ag2344
aa(lp2430
g2413
ag2366
ag2343
ag2346
aa(lp2431
g2413
ag2366
ag2348
ag2344
aa(lp2432
g2413
ag2366
ag2348
ag2346
aa(lp2433
S'White'
p2434
ag2342
ag2343
ag2344
aa(lp2435
g2434
ag2342
ag2343
ag2346
aa(lp2436
g2434
ag2342
ag2348
ag2344
aa(lp2437
g2434
ag2342
ag2348
ag2346
aa(lp2438
g2434
ag2351
ag2343
ag2344
aa(lp2439
g2434
ag2351
ag2343
ag2346
aa(lp2440
g2434
ag2351
ag2348
ag2344
aa(lp2441
g2434
ag2351
ag2348
ag2346
aa(lp2442
g2434
ag2356
ag2343
ag2344
aa(lp2443
g2434
ag2356
ag2343
ag2346
aa(lp2444
g2434
ag2356
ag2348
ag2344
aa(lp2445
g2434
ag2356
ag2348
ag2346
aa(lp2446
g2434
ag2361
ag2343
ag2344
aa(lp2447
g2434
ag2361
ag2343
ag2346
aa(lp2448
g2434
ag2361
ag2348
ag2344
aa(lp2449
g2434
ag2361
ag2348
ag2346
aa(lp2450
g2434
ag2366
ag2343
ag2344
aa(lp2451
g2434
ag2366
ag2343
ag2346
aa(lp2452
g2434
ag2366
ag2348
ag2344
aa(lp2453
g2434
ag2366
ag2348
ag2346
aa(lp2454
S'William'
p2455
ag2342
ag2343
ag2344
aa(lp2456
g2455
ag2342
ag2343
ag2346
aa(lp2457
g2455
ag2342
ag2348
ag2344
aa(lp2458
g2455
ag2342
ag2348
ag2346
aa(lp2459
g2455
ag2351
ag2343
ag2344
aa(lp2460
g2455
ag2351
ag2343
ag2346
aa(lp2461
g2455
ag2351
ag2348
ag2344
aa(lp2462
g2455
ag2351
ag2348
ag2346
aa(lp2463
g2455
ag2356
ag2343
ag2344
aa(lp2464
g2455
ag2356
ag2343
ag2346
aa(lp2465
g2455
ag2356
ag2348
ag2344
aa(lp2466
g2455
ag2356
ag2348
ag2346
aa(lp2467
g2455
ag2361
ag2343
ag2344
aa(lp2468
g2455
ag2361
ag2343
ag2346
aa(lp2469
g2455
ag2361
ag2348
ag2344
aa(lp2470
g2455
ag2361
ag2348
ag2346
aa(lp2471
g2455
ag2366
ag2343
ag2344
aa(lp2472
g2455
ag2366
ag2343
ag2346
aa(lp2473
g2455
ag2366
ag2348
ag2344
aa(lp2474
g2455
ag2366
ag2348
ag2346
aa(lp2475
S'Porter'
p2476
ag2342
ag2343
ag2344
aa(lp2477
g2476
ag2342
ag2343
ag2346
aa(lp2478
g2476
ag2342
ag2348
ag2344
aa(lp2479
g2476
ag2342
ag2348
ag2346
aa(lp2480
g2476
ag2351
ag2343
ag2344
aa(lp2481
g2476
ag2351
ag2343
ag2346
aa(lp2482
g2476
ag2351
ag2348
ag2344
aa(lp2483
g2476
ag2351
ag2348
ag2346
aa(lp2484
g2476
ag2356
ag2343
ag2344
aa(lp2485
g2476
ag2356
ag2343
ag2346
aa(lp2486
g2476
ag2356
ag2348
ag2344
aa(lp2487
g2476
ag2356
ag2348
ag2346
aa(lp2488
g2476
ag2361
ag2343
ag2344
aa(lp2489
g2476
ag2361
ag2343
ag2346
aa(lp2490
g2476
ag2361
ag2348
ag2344
aa(lp2491
g2476
ag2361
ag2348
ag2346
aa(lp2492
g2476
ag2366
ag2343
ag2344
aa(lp2493
g2476
ag2366
ag2343
ag2346
aa(lp2494
g2476
ag2366
ag2348
ag2344
aa(lp2495
g2476
ag2366
ag2348
ag2346
aa(lp2496
S'Garrett'
p2497
ag2342
ag2343
ag2344
aa(lp2498
g2497
ag2342
ag2343
ag2346
aa(lp2499
g2497
ag2342
ag2348
ag2344
aa(lp2500
g2497
ag2342
ag2348
ag2346
aa(lp2501
g2497
ag2351
ag2343
ag2344
aa(lp2502
g2497
ag2351
ag2343
ag2346
aa(lp2503
g2497
ag2351
ag2348
ag2344
aa(lp2504
g2497
ag2351
ag2348
ag2346
aa(lp2505
g2497
ag2356
ag2343
ag2344
aa(lp2506
g2497
ag2356
ag2343
ag2346
aa(lp2507
g2497
ag2356
ag2348
ag2344
aa(lp2508
g2497
ag2356
ag2348
ag2346
aa(lp2509
g2497
ag2361
ag2343
ag2344
aa(lp2510
g2497
ag2361
ag2343
ag2346
aa(lp2511
g2497
ag2361
ag2348
ag2344
aa(lp2512
g2497
ag2361
ag2348
ag2346
aa(lp2513
g2497
ag2366
ag2343
ag2344
aa(lp2514
g2497
ag2366
ag2343
ag2346
aa(lp2515
g2497
ag2366
ag2348
ag2344
aa(lp2516
g2497
ag2366
ag2348
ag2346
aa(lp2517
S'Miller'
p2518
ag2342
ag2343
ag2344
aa(lp2519
g2518
ag2342
ag2343
ag2346
aa(lp2520
g2518
ag2342
ag2348
ag2344
aa(lp2521
g2518
ag2342
ag2348
ag2346
aa(lp2522
g2518
ag2351
ag2343
ag2344
aa(lp2523
g2518
ag2351
ag2343
ag2346
aa(lp2524
g2518
ag2351
ag2348
ag2344
aa(lp2525
g2518
ag2351
ag2348
ag2346
aa(lp2526
g2518
ag2356
ag2343
ag2344
aa(lp2527
g2518
ag2356
ag2343
ag2346
aa(lp2528
g2518
ag2356
ag2348
ag2344
aa(lp2529
g2518
ag2356
ag2348
ag2346
aa(lp2530
g2518
ag2361
ag2343
ag2344
aa(lp2531
g2518
ag2361
ag2343
ag2346
aa(lp2532
g2518
ag2361
ag2348
ag2344
aa(lp2533
g2518
ag2361
ag2348
ag2346
aa(lp2534
g2518
ag2366
ag2343
ag2344
aa(lp2535
g2518
ag2366
ag2343
ag2346
aa(lp2536
g2518
ag2366
ag2348
ag2344
aa(lp2537
g2518
ag2366
ag2348
ag2346
aa(lp2538
S'Edward'
p2539
ag2342
ag2343
ag2344
aa(lp2540
g2539
ag2342
ag2343
ag2346
aa(lp2541
g2539
ag2342
ag2348
ag2344
aa(lp2542
g2539
ag2342
ag2348
ag2346
aa(lp2543
g2539
ag2351
ag2343
ag2344
aa(lp2544
g2539
ag2351
ag2343
ag2346
aa(lp2545
g2539
ag2351
ag2348
ag2344
aa(lp2546
g2539
ag2351
ag2348
ag2346
aa(lp2547
g2539
ag2356
ag2343
ag2344
aa(lp2548
g2539
ag2356
ag2343
ag2346
aa(lp2549
g2539
ag2356
ag2348
ag2344
aa(lp2550
g2539
ag2356
ag2348
ag2346
aa(lp2551
g2539
ag2361
ag2343
ag2344
aa(lp2552
g2539
ag2361
ag2343
ag2346
aa(lp2553
g2539
ag2361
ag2348
ag2344
aa(lp2554
g2539
ag2361
ag2348
ag2346
aa(lp2555
g2539
ag2366
ag2343
ag2344
aa(lp2556
g2539
ag2366
ag2343
ag2346
aa(lp2557
g2539
ag2366
ag2348
ag2344
aa(lp2558
g2539
ag2366
ag2348
ag2346
aa(lp2559
S'Nero'
p2560
ag2342
ag2343
ag2344
aa(lp2561
g2560
ag2342
ag2343
ag2346
aa(lp2562
g2560
ag2342
ag2348
ag2344
aa(lp2563
g2560
ag2342
ag2348
ag2346
aa(lp2564
g2560
ag2351
ag2343
ag2344
aa(lp2565
g2560
ag2351
ag2343
ag2346
aa(lp2566
g2560
ag2351
ag2348
ag2344
aa(lp2567
g2560
ag2351
ag2348
ag2346
aa(lp2568
g2560
ag2356
ag2343
ag2344
aa(lp2569
g2560
ag2356
ag2343
ag2346
aa(lp2570
g2560
ag2356
ag2348
ag2344
aa(lp2571
g2560
ag2356
ag2348
ag2346
aa(lp2572
g2560
ag2361
ag2343
ag2344
aa(lp2573
g2560
ag2361
ag2343
ag2346
aa(lp2574
g2560
ag2361
ag2348
ag2344
aa(lp2575
g2560
ag2361
ag2348
ag2346
aa(lp2576
g2560
ag2366
ag2343
ag2344
aa(lp2577
g2560
ag2366
ag2343
ag2346
aa(lp2578
g2560
ag2366
ag2348
ag2344
aa(lp2579
g2560
ag2366
ag2348
ag2346
aa(lp2580
S'Caesar'
p2581
ag2342
ag2343
ag2344
aa(lp2582
g2581
ag2342
ag2343
ag2346
aa(lp2583
g2581
ag2342
ag2348
ag2344
aa(lp2584
g2581
ag2342
ag2348
ag2346
aa(lp2585
g2581
ag2351
ag2343
ag2344
aa(lp2586
g2581
ag2351
ag2343
ag2346
aa(lp2587
g2581
ag2351
ag2348
ag2344
aa(lp2588
g2581
ag2351
ag2348
ag2346
aa(lp2589
g2581
ag2356
ag2343
ag2344
aa(lp2590
g2581
ag2356
ag2343
ag2346
aa(lp2591
g2581
ag2356
ag2348
ag2344
aa(lp2592
g2581
ag2356
ag2348
ag2346
aa(lp2593
g2581
ag2361
ag2343
ag2344
aa(lp2594
g2581
ag2361
ag2343
ag2346
aa(lp2595
g2581
ag2361
ag2348
ag2344
aa(lp2596
g2581
ag2361
ag2348
ag2346
aa(lp2597
g2581
ag2366
ag2343
ag2344
aa(lp2598
g2581
ag2366
ag2343
ag2346
aa(lp2599
g2581
ag2366
ag2348
ag2344
aa(lp2600
g2581
ag2366
ag2348
ag2346
aa(lp2601
S'Goodson'
p2602
ag2342
ag2343
ag2344
aa(lp2603
g2602
ag2342
ag2343
ag2346
aa(lp2604
g2602
ag2342
ag2348
ag2344
aa(lp2605
g2602
ag2342
ag2348
ag2346
aa(lp2606
g2602
ag2351
ag2343
ag2344
aa(lp2607
g2602
ag2351
ag2343
ag2346
aa(lp2608
g2602
ag2351
ag2348
ag2344
aa(lp2609
g2602
ag2351
ag2348
ag2346
aa(lp2610
g2602
ag2356
ag2343
ag2344
aa(lp2611
g2602
ag2356
ag2343
ag2346
aa(lp2612
g2602
ag2356
ag2348
ag2344
aa(lp2613
g2602
ag2356
ag2348
ag2346
aa(lp2614
g2602
ag2361
ag2343
ag2344
aa(lp2615
g2602
ag2361
ag2343
ag2346
aa(lp2616
g2602
ag2361
ag2348
ag2344
aa(lp2617
g2602
ag2361
ag2348
ag2346
aa(lp2618
g2602
ag2366
ag2343
ag2344
aa(lp2619
g2602
ag2366
ag2343
ag2346
aa(lp2620
g2602
ag2366
ag2348
ag2344
aa(lp2621
g2602
ag2366
ag2348
ag2346
aas.